
LCD.elf:     file format elf32-avr

Sections:
Idx Name          Size      VMA       LMA       File off  Algn
  0 .text         00000d12  00000000  00000000  00000094  2**1
                  CONTENTS, ALLOC, LOAD, READONLY, CODE
  1 .data         000000e2  00800060  00000d12  00000da6  2**0
                  CONTENTS, ALLOC, LOAD, DATA
  2 .bss          00000031  00800142  00800142  00000e88  2**0
                  ALLOC
  3 .stab         000006cc  00000000  00000000  00000e88  2**2
                  CONTENTS, READONLY, DEBUGGING
  4 .stabstr      00000090  00000000  00000000  00001554  2**0
                  CONTENTS, READONLY, DEBUGGING
  5 .debug_aranges 000000e0  00000000  00000000  000015e4  2**0
                  CONTENTS, READONLY, DEBUGGING
  6 .debug_pubnames 00000375  00000000  00000000  000016c4  2**0
                  CONTENTS, READONLY, DEBUGGING
  7 .debug_info   00000f96  00000000  00000000  00001a39  2**0
                  CONTENTS, READONLY, DEBUGGING
  8 .debug_abbrev 000006a3  00000000  00000000  000029cf  2**0
                  CONTENTS, READONLY, DEBUGGING
  9 .debug_line   000014f0  00000000  00000000  00003072  2**0
                  CONTENTS, READONLY, DEBUGGING
 10 .debug_frame  00000300  00000000  00000000  00004564  2**2
                  CONTENTS, READONLY, DEBUGGING
 11 .debug_str    00000451  00000000  00000000  00004864  2**0
                  CONTENTS, READONLY, DEBUGGING
 12 .debug_loc    00000957  00000000  00000000  00004cb5  2**0
                  CONTENTS, READONLY, DEBUGGING
 13 .debug_pubtypes 00000038  00000000  00000000  0000560c  2**0
                  CONTENTS, READONLY, DEBUGGING
 14 .debug_ranges 00000048  00000000  00000000  00005644  2**0
                  CONTENTS, READONLY, DEBUGGING

Disassembly of section .text:

00000000 <__vectors>:
   0:	12 c0       	rjmp	.+36     	; 0x26 <__ctors_end>
   2:	2c c0       	rjmp	.+88     	; 0x5c <__bad_interrupt>
   4:	2b c0       	rjmp	.+86     	; 0x5c <__bad_interrupt>
   6:	2a c0       	rjmp	.+84     	; 0x5c <__bad_interrupt>
   8:	29 c0       	rjmp	.+82     	; 0x5c <__bad_interrupt>
   a:	28 c0       	rjmp	.+80     	; 0x5c <__bad_interrupt>
   c:	27 c0       	rjmp	.+78     	; 0x5c <__bad_interrupt>
   e:	26 c0       	rjmp	.+76     	; 0x5c <__bad_interrupt>
  10:	25 c0       	rjmp	.+74     	; 0x5c <__bad_interrupt>
  12:	24 c0       	rjmp	.+72     	; 0x5c <__bad_interrupt>
  14:	23 c0       	rjmp	.+70     	; 0x5c <__bad_interrupt>
  16:	22 c0       	rjmp	.+68     	; 0x5c <__bad_interrupt>
  18:	21 c0       	rjmp	.+66     	; 0x5c <__bad_interrupt>
  1a:	20 c0       	rjmp	.+64     	; 0x5c <__bad_interrupt>
  1c:	1f c0       	rjmp	.+62     	; 0x5c <__bad_interrupt>
  1e:	1e c0       	rjmp	.+60     	; 0x5c <__bad_interrupt>
  20:	1d c0       	rjmp	.+58     	; 0x5c <__bad_interrupt>
  22:	1c c0       	rjmp	.+56     	; 0x5c <__bad_interrupt>
  24:	1b c0       	rjmp	.+54     	; 0x5c <__bad_interrupt>

00000026 <__ctors_end>:
  26:	11 24       	eor	r1, r1
  28:	1f be       	out	0x3f, r1	; 63
  2a:	cf e5       	ldi	r28, 0x5F	; 95
  2c:	d4 e0       	ldi	r29, 0x04	; 4
  2e:	de bf       	out	0x3e, r29	; 62
  30:	cd bf       	out	0x3d, r28	; 61

00000032 <__do_copy_data>:
  32:	11 e0       	ldi	r17, 0x01	; 1
  34:	a0 e6       	ldi	r26, 0x60	; 96
  36:	b0 e0       	ldi	r27, 0x00	; 0
  38:	e2 e1       	ldi	r30, 0x12	; 18
  3a:	fd e0       	ldi	r31, 0x0D	; 13
  3c:	02 c0       	rjmp	.+4      	; 0x42 <__SREG__+0x3>
  3e:	05 90       	lpm	r0, Z+
  40:	0d 92       	st	X+, r0
  42:	a2 34       	cpi	r26, 0x42	; 66
  44:	b1 07       	cpc	r27, r17
  46:	d9 f7       	brne	.-10     	; 0x3e <__SP_H__>

00000048 <__do_clear_bss>:
  48:	11 e0       	ldi	r17, 0x01	; 1
  4a:	a2 e4       	ldi	r26, 0x42	; 66
  4c:	b1 e0       	ldi	r27, 0x01	; 1
  4e:	01 c0       	rjmp	.+2      	; 0x52 <.do_clear_bss_start>

00000050 <.do_clear_bss_loop>:
  50:	1d 92       	st	X+, r1

00000052 <.do_clear_bss_start>:
  52:	a3 37       	cpi	r26, 0x73	; 115
  54:	b1 07       	cpc	r27, r17
  56:	e1 f7       	brne	.-8      	; 0x50 <.do_clear_bss_loop>
  58:	28 d2       	rcall	.+1104   	; 0x4aa <main>
  5a:	59 c6       	rjmp	.+3250   	; 0xd0e <_exit>

0000005c <__bad_interrupt>:
  5c:	d1 cf       	rjmp	.-94     	; 0x0 <__vectors>

0000005e <sw_check>:

uint8_t sw_check(uint8_t sw_nr)
{
	uint8_t temp=0;

	switch (sw_nr)
  5e:	82 30       	cpi	r24, 0x02	; 2
  60:	91 f0       	breq	.+36     	; 0x86 <sw_check+0x28>
  62:	83 30       	cpi	r24, 0x03	; 3
  64:	28 f4       	brcc	.+10     	; 0x70 <sw_check+0x12>
  66:	88 23       	and	r24, r24
  68:	41 f0       	breq	.+16     	; 0x7a <sw_check+0x1c>
  6a:	81 30       	cpi	r24, 0x01	; 1
  6c:	29 f5       	brne	.+74     	; 0xb8 <sw_check+0x5a>
  6e:	08 c0       	rjmp	.+16     	; 0x80 <sw_check+0x22>
  70:	83 30       	cpi	r24, 0x03	; 3
  72:	61 f0       	breq	.+24     	; 0x8c <sw_check+0x2e>
  74:	84 30       	cpi	r24, 0x04	; 4
  76:	01 f5       	brne	.+64     	; 0xb8 <sw_check+0x5a>
  78:	0c c0       	rjmp	.+24     	; 0x92 <sw_check+0x34>
	{
		case left:
			if (!(sw_left_dir & sw_left))
  7a:	86 9b       	sbis	0x10, 6	; 16
  7c:	0c c0       	rjmp	.+24     	; 0x96 <sw_check+0x38>
  7e:	1c c0       	rjmp	.+56     	; 0xb8 <sw_check+0x5a>
				temp=1;
			break;
		case right:
			if (!(sw_right_dir & sw_right))
  80:	87 9b       	sbis	0x10, 7	; 16
  82:	09 c0       	rjmp	.+18     	; 0x96 <sw_check+0x38>
  84:	19 c0       	rjmp	.+50     	; 0xb8 <sw_check+0x5a>
				temp=1;
			break;
		case up:
			if (!(sw_up_dir & sw_up))
  86:	85 9b       	sbis	0x10, 5	; 16
  88:	06 c0       	rjmp	.+12     	; 0x96 <sw_check+0x38>
  8a:	16 c0       	rjmp	.+44     	; 0xb8 <sw_check+0x5a>
				temp=1;
			break;
		case down:
			if (!(sw_down_dir & sw_down))
  8c:	b0 9b       	sbis	0x16, 0	; 22
  8e:	03 c0       	rjmp	.+6      	; 0x96 <sw_check+0x38>
  90:	13 c0       	rjmp	.+38     	; 0xb8 <sw_check+0x5a>
				temp=1;
			break;
		case przycisk:
			if (!(przycisk_dir & sw_przycisk))
  92:	82 99       	sbic	0x10, 2	; 16
  94:	13 c0       	rjmp	.+38     	; 0xbc <sw_check+0x5e>
		default:
			temp=0;
	}
	if (temp == 1)
	{
		PORTB ^= brzeczyk;
  96:	88 b3       	in	r24, 0x18	; 24
  98:	80 58       	subi	r24, 0x80	; 128
  9a:	88 bb       	out	0x18, r24	; 24
	#else
		//round up by default
		__ticks_dc = (uint32_t)(ceil(fabs(__tmp)));
	#endif

	__builtin_avr_delay_cycles(__ticks_dc);
  9c:	8f e7       	ldi	r24, 0x7F	; 127
  9e:	98 e3       	ldi	r25, 0x38	; 56
  a0:	a1 e0       	ldi	r26, 0x01	; 1
  a2:	81 50       	subi	r24, 0x01	; 1
  a4:	90 40       	sbci	r25, 0x00	; 0
  a6:	a0 40       	sbci	r26, 0x00	; 0
  a8:	e1 f7       	brne	.-8      	; 0xa2 <sw_check+0x44>
  aa:	00 c0       	rjmp	.+0      	; 0xac <sw_check+0x4e>
  ac:	00 00       	nop
		_delay_ms(50);
		PORTB ^= brzeczyk;
  ae:	88 b3       	in	r24, 0x18	; 24
  b0:	80 58       	subi	r24, 0x80	; 128
  b2:	88 bb       	out	0x18, r24	; 24
  b4:	81 e0       	ldi	r24, 0x01	; 1
  b6:	08 95       	ret

uint8_t sw_check(uint8_t sw_nr)
{
	uint8_t temp=0;

	switch (sw_nr)
  b8:	80 e0       	ldi	r24, 0x00	; 0
  ba:	08 95       	ret
		case down:
			if (!(sw_down_dir & sw_down))
				temp=1;
			break;
		case przycisk:
			if (!(przycisk_dir & sw_przycisk))
  bc:	80 e0       	ldi	r24, 0x00	; 0
		PORTB ^= brzeczyk;
		_delay_ms(50);
		PORTB ^= brzeczyk;
	}
	return temp;
}
  be:	08 95       	ret

000000c0 <ustawianie_czasu>:

void ustawianie_czasu(uint8_t h, uint8_t m, uint8_t s)	
{
  c0:	1f 93       	push	r17
  c2:	df 93       	push	r29
  c4:	cf 93       	push	r28
  c6:	00 d0       	rcall	.+0      	; 0xc8 <ustawianie_czasu+0x8>
  c8:	cd b7       	in	r28, 0x3d	; 61
  ca:	de b7       	in	r29, 0x3e	; 62
  cc:	18 2f       	mov	r17, r24
	TWI_Init();
  ce:	4a 83       	std	Y+2, r20	; 0x02
  d0:	69 83       	std	Y+1, r22	; 0x01
  d2:	41 d4       	rcall	.+2178   	; 0x956 <TWI_Init>
	TWI_Start();
  d4:	15 d4       	rcall	.+2090   	; 0x900 <TWI_Start>
	TWI_Write(0xA0);			
  d6:	80 ea       	ldi	r24, 0xA0	; 160
  d8:	1f d4       	rcall	.+2110   	; 0x918 <TWI_Write>
	TWI_Write(0x04);			// rejest godzin
  da:	84 e0       	ldi	r24, 0x04	; 4
  dc:	1d d4       	rcall	.+2106   	; 0x918 <TWI_Write>
	TWI_Write(IntToBcd(h));
  de:	81 2f       	mov	r24, r17
  e0:	3d d4       	rcall	.+2170   	; 0x95c <IntToBcd>
  e2:	1a d4       	rcall	.+2100   	; 0x918 <TWI_Write>
	TWI_Stop();
  e4:	13 d4       	rcall	.+2086   	; 0x90c <TWI_Stop>
	TWI_Start();
  e6:	0c d4       	rcall	.+2072   	; 0x900 <TWI_Start>
	TWI_Write(0xA0);			
  e8:	80 ea       	ldi	r24, 0xA0	; 160
  ea:	16 d4       	rcall	.+2092   	; 0x918 <TWI_Write>
	TWI_Write(0x03);			// rejestr minut
  ec:	83 e0       	ldi	r24, 0x03	; 3
  ee:	14 d4       	rcall	.+2088   	; 0x918 <TWI_Write>
	TWI_Write(IntToBcd(m));
  f0:	69 81       	ldd	r22, Y+1	; 0x01
  f2:	86 2f       	mov	r24, r22
  f4:	33 d4       	rcall	.+2150   	; 0x95c <IntToBcd>
  f6:	10 d4       	rcall	.+2080   	; 0x918 <TWI_Write>
	TWI_Stop();
  f8:	09 d4       	rcall	.+2066   	; 0x90c <TWI_Stop>
	TWI_Start();
  fa:	02 d4       	rcall	.+2052   	; 0x900 <TWI_Start>
	TWI_Write(0xA0);			
  fc:	80 ea       	ldi	r24, 0xA0	; 160
  fe:	0c d4       	rcall	.+2072   	; 0x918 <TWI_Write>
	TWI_Write(0x02);			// rejest sekund
 100:	82 e0       	ldi	r24, 0x02	; 2
 102:	0a d4       	rcall	.+2068   	; 0x918 <TWI_Write>
	TWI_Write(IntToBcd(s));
 104:	4a 81       	ldd	r20, Y+2	; 0x02
 106:	84 2f       	mov	r24, r20
 108:	29 d4       	rcall	.+2130   	; 0x95c <IntToBcd>
 10a:	06 d4       	rcall	.+2060   	; 0x918 <TWI_Write>
	TWI_Stop();
 10c:	ff d3       	rcall	.+2046   	; 0x90c <TWI_Stop>
}
 10e:	0f 90       	pop	r0
 110:	0f 90       	pop	r0
 112:	cf 91       	pop	r28
 114:	df 91       	pop	r29
 116:	1f 91       	pop	r17
 118:	08 95       	ret

0000011a <ustawienie_daty>:
//
// 0x10


void ustawienie_daty(uint8_t y, uint8_t m, uint8_t d, uint8_t wd)
{
 11a:	1f 93       	push	r17
 11c:	df 93       	push	r29
 11e:	cf 93       	push	r28
 120:	00 d0       	rcall	.+0      	; 0x122 <ustawienie_daty+0x8>
 122:	0f 92       	push	r0
 124:	cd b7       	in	r28, 0x3d	; 61
 126:	de b7       	in	r29, 0x3e	; 62
 128:	18 2f       	mov	r17, r24
	uint8_t y_temp;
	uint8_t y_reszta;

	y_reszta	= y % 4;
	y_temp		= y / 4;
	TWI_Start();
 12a:	2b 83       	std	Y+3, r18	; 0x03
 12c:	49 83       	std	Y+1, r20	; 0x01
 12e:	6a 83       	std	Y+2, r22	; 0x02
 130:	e7 d3       	rcall	.+1998   	; 0x900 <TWI_Start>
	TWI_Write(0xA0);			
 132:	80 ea       	ldi	r24, 0xA0	; 160
 134:	f1 d3       	rcall	.+2018   	; 0x918 <TWI_Write>
	TWI_Write(0x05);
 136:	85 e0       	ldi	r24, 0x05	; 5
 138:	ef d3       	rcall	.+2014   	; 0x918 <TWI_Write>
	//TWI_Write(0x28);
	TWI_Write((y_reszta << 6) | IntToBcd(d));		
 13a:	49 81       	ldd	r20, Y+1	; 0x01
 13c:	84 2f       	mov	r24, r20
 13e:	0e d4       	rcall	.+2076   	; 0x95c <IntToBcd>
 140:	91 2f       	mov	r25, r17
 142:	92 95       	swap	r25
 144:	99 0f       	add	r25, r25
 146:	99 0f       	add	r25, r25
 148:	90 7c       	andi	r25, 0xC0	; 192
 14a:	89 2b       	or	r24, r25
 14c:	e5 d3       	rcall	.+1994   	; 0x918 <TWI_Write>
	TWI_Stop();
 14e:	de d3       	rcall	.+1980   	; 0x90c <TWI_Stop>
	TWI_Start();
 150:	d7 d3       	rcall	.+1966   	; 0x900 <TWI_Start>
	TWI_Write(0xA0);			
 152:	80 ea       	ldi	r24, 0xA0	; 160
 154:	e1 d3       	rcall	.+1986   	; 0x918 <TWI_Write>
	TWI_Write(0x06);
 156:	86 e0       	ldi	r24, 0x06	; 6
 158:	df d3       	rcall	.+1982   	; 0x918 <TWI_Write>
	//TWI_Write(0x42);
	TWI_Write((wd << 5) | IntToBcd(m));	
 15a:	6a 81       	ldd	r22, Y+2	; 0x02
 15c:	86 2f       	mov	r24, r22
 15e:	fe d3       	rcall	.+2044   	; 0x95c <IntToBcd>
 160:	2b 81       	ldd	r18, Y+3	; 0x03
 162:	22 95       	swap	r18
 164:	22 0f       	add	r18, r18
 166:	20 7e       	andi	r18, 0xE0	; 224
 168:	82 2b       	or	r24, r18
 16a:	d6 d3       	rcall	.+1964   	; 0x918 <TWI_Write>
	TWI_Stop();
 16c:	cf d3       	rcall	.+1950   	; 0x90c <TWI_Stop>

	TWI_Start();
 16e:	c8 d3       	rcall	.+1936   	; 0x900 <TWI_Start>
	TWI_Write(0xA0);			
 170:	80 ea       	ldi	r24, 0xA0	; 160
 172:	d2 d3       	rcall	.+1956   	; 0x918 <TWI_Write>
	TWI_Write(0x10);
 174:	80 e1       	ldi	r24, 0x10	; 16
 176:	d0 d3       	rcall	.+1952   	; 0x918 <TWI_Write>
	TWI_Write(y_temp);
 178:	81 2f       	mov	r24, r17
 17a:	86 95       	lsr	r24
 17c:	86 95       	lsr	r24
 17e:	cc d3       	rcall	.+1944   	; 0x918 <TWI_Write>
	TWI_Stop();
 180:	c5 d3       	rcall	.+1930   	; 0x90c <TWI_Stop>

}
 182:	0f 90       	pop	r0
 184:	0f 90       	pop	r0
 186:	0f 90       	pop	r0
 188:	cf 91       	pop	r28
 18a:	df 91       	pop	r29
 18c:	1f 91       	pop	r17
 18e:	08 95       	ret

00000190 <set_time>:

void set_time(uint8_t * bufor)
{
 190:	cf 92       	push	r12
 192:	df 92       	push	r13
 194:	ef 92       	push	r14
 196:	ff 92       	push	r15
 198:	0f 93       	push	r16
 19a:	1f 93       	push	r17
 19c:	df 93       	push	r29
 19e:	cf 93       	push	r28
 1a0:	00 d0       	rcall	.+0      	; 0x1a2 <set_time+0x12>
 1a2:	00 d0       	rcall	.+0      	; 0x1a4 <set_time+0x14>
 1a4:	cd b7       	in	r28, 0x3d	; 61
 1a6:	de b7       	in	r29, 0x3e	; 62
 1a8:	fc 01       	movw	r30, r24
	uint8_t set_poz = 0;		//informuje o zmiennej aktualnie ustawianej
	uint8_t set_on 	= 0;		//informuje czy byl ustawianiy czas
	uint8_t time_s[3];			//tablica lokalna do ustawiania czasu
	
	for (uint8_t i=0;i<3;i++)	//przepisanie aktualnego czasu do tablicy lokalnej
		time_s[i] = bufor[i];
 1aa:	80 81       	ld	r24, Z
 1ac:	89 83       	std	Y+1, r24	; 0x01
 1ae:	81 81       	ldd	r24, Z+1	; 0x01
 1b0:	8a 83       	std	Y+2, r24	; 0x02
 1b2:	82 81       	ldd	r24, Z+2	; 0x02
 1b4:	8b 83       	std	Y+3, r24	; 0x03

	LCD_Clear();
 1b6:	07 d3       	rcall	.+1550   	; 0x7c6 <LCD_Clear>
	LCD_GoTo4(3,0);
 1b8:	83 e0       	ldi	r24, 0x03	; 3
 1ba:	60 e0       	ldi	r22, 0x00	; 0
 1bc:	f7 d2       	rcall	.+1518   	; 0x7ac <LCD_GoTo4>
	LCD_WriteText("Set Time");
 1be:	80 e6       	ldi	r24, 0x60	; 96
 1c0:	90 e0       	ldi	r25, 0x00	; 0
 1c2:	df d2       	rcall	.+1470   	; 0x782 <LCD_WriteText>
	LCD_GoTo4(pozycja,2);
 1c4:	83 e0       	ldi	r24, 0x03	; 3
 1c6:	62 e0       	ldi	r22, 0x02	; 2
 1c8:	f1 d2       	rcall	.+1506   	; 0x7ac <LCD_GoTo4>
	LCD_WriteText("^^");
 1ca:	89 e6       	ldi	r24, 0x69	; 105
 1cc:	90 e0       	ldi	r25, 0x00	; 0
 1ce:	d9 d2       	rcall	.+1458   	; 0x782 <LCD_WriteText>

void set_time(uint8_t * bufor)
{
	uint8_t pozycja = 3;		//informuje o aktualnej pozycji kursora wskazuj¹cego zmienn¹ do ustawiania
	uint8_t set_poz = 0;		//informuje o zmiennej aktualnie ustawianej
	uint8_t set_on 	= 0;		//informuje czy byl ustawianiy czas
 1d0:	1c 82       	std	Y+4, r1	; 0x04

}

void set_time(uint8_t * bufor)
{
	uint8_t pozycja = 3;		//informuje o aktualnej pozycji kursora wskazuj¹cego zmienn¹ do ustawiania
 1d2:	33 e0       	ldi	r19, 0x03	; 3
 1d4:	f3 2e       	mov	r15, r19
	LCD_GoTo4(pozycja,2);
	LCD_WriteText("^^");
	do
	{
		LCD_GoTo4(3,1);
		wysw_czas(time_s);
 1d6:	8e 01       	movw	r16, r28
 1d8:	0f 5f       	subi	r16, 0xFF	; 255
 1da:	1f 4f       	sbci	r17, 0xFF	; 255
			if ((set_poz == minuta) || (set_poz == sekunda))
			{
				if((time_s[set_poz])>0)
					time_s[set_poz]--;
				else
					time_s[set_poz] = 59;
 1dc:	2b e3       	ldi	r18, 0x3B	; 59
 1de:	d2 2e       	mov	r13, r18
			if (set_poz == godzina)
			{
				if(time_s[godzina]>0)
					time_s[godzina]--;
				else
					time_s[godzina] = 23;
 1e0:	97 e1       	ldi	r25, 0x17	; 23
 1e2:	e9 2e       	mov	r14, r25
	LCD_WriteText("Set Time");
	LCD_GoTo4(pozycja,2);
	LCD_WriteText("^^");
	do
	{
		LCD_GoTo4(3,1);
 1e4:	83 e0       	ldi	r24, 0x03	; 3
 1e6:	61 e0       	ldi	r22, 0x01	; 1
 1e8:	e1 d2       	rcall	.+1474   	; 0x7ac <LCD_GoTo4>
		wysw_czas(time_s);
 1ea:	c8 01       	movw	r24, r16
 1ec:	df d4       	rcall	.+2494   	; 0xbac <wysw_czas>
		if(sw_check(right))
 1ee:	81 e0       	ldi	r24, 0x01	; 1
 1f0:	36 df       	rcall	.-404    	; 0x5e <sw_check>
 1f2:	88 23       	and	r24, r24
 1f4:	11 f1       	breq	.+68     	; 0x23a <set_time+0xaa>
		{
			LCD_GoTo4(pozycja,2);
 1f6:	8f 2d       	mov	r24, r15
 1f8:	62 e0       	ldi	r22, 0x02	; 2
 1fa:	d8 d2       	rcall	.+1456   	; 0x7ac <LCD_GoTo4>
			LCD_WriteText("  ");
 1fc:	8c e6       	ldi	r24, 0x6C	; 108
 1fe:	90 e0       	ldi	r25, 0x00	; 0
 200:	c0 d2       	rcall	.+1408   	; 0x782 <LCD_WriteText>
			if (pozycja==3 || pozycja==6)
 202:	8f 2d       	mov	r24, r15
 204:	83 30       	cpi	r24, 0x03	; 3
 206:	11 f0       	breq	.+4      	; 0x20c <set_time+0x7c>
 208:	86 30       	cpi	r24, 0x06	; 6
 20a:	19 f4       	brne	.+6      	; 0x212 <set_time+0x82>
				pozycja += 3;
 20c:	93 e0       	ldi	r25, 0x03	; 3
 20e:	f9 0e       	add	r15, r25
 210:	05 c0       	rjmp	.+10     	; 0x21c <set_time+0x8c>
			else if (pozycja==9)
 212:	af 2d       	mov	r26, r15
 214:	a9 30       	cpi	r26, 0x09	; 9
 216:	11 f4       	brne	.+4      	; 0x21c <set_time+0x8c>
				pozycja = 3;
 218:	83 e0       	ldi	r24, 0x03	; 3
 21a:	f8 2e       	mov	r15, r24
			LCD_GoTo4(pozycja,2);
 21c:	8f 2d       	mov	r24, r15
 21e:	62 e0       	ldi	r22, 0x02	; 2
 220:	c5 d2       	rcall	.+1418   	; 0x7ac <LCD_GoTo4>
			LCD_WriteText("^^");
 222:	89 e6       	ldi	r24, 0x69	; 105
 224:	90 e0       	ldi	r25, 0x00	; 0
 226:	ad d2       	rcall	.+1370   	; 0x782 <LCD_WriteText>
 228:	8f ef       	ldi	r24, 0xFF	; 255
 22a:	92 e5       	ldi	r25, 0x52	; 82
 22c:	a7 e0       	ldi	r26, 0x07	; 7
 22e:	81 50       	subi	r24, 0x01	; 1
 230:	90 40       	sbci	r25, 0x00	; 0
 232:	a0 40       	sbci	r26, 0x00	; 0
 234:	e1 f7       	brne	.-8      	; 0x22e <set_time+0x9e>
 236:	00 c0       	rjmp	.+0      	; 0x238 <set_time+0xa8>
 238:	00 00       	nop
			_delay_ms(300);
		}
		set_poz = (pozycja / 3) - 1;
 23a:	8f 2d       	mov	r24, r15
 23c:	63 e0       	ldi	r22, 0x03	; 3
 23e:	34 d5       	rcall	.+2664   	; 0xca8 <__udivmodqi4>
 240:	c8 2e       	mov	r12, r24
 242:	ca 94       	dec	r12
		if(sw_check(up))
 244:	82 e0       	ldi	r24, 0x02	; 2
 246:	0b df       	rcall	.-490    	; 0x5e <sw_check>
 248:	88 23       	and	r24, r24
 24a:	c1 f0       	breq	.+48     	; 0x27c <set_time+0xec>
		{
			set_on = 1;
			if (set_poz == godzina)							
 24c:	cc 20       	and	r12, r12
 24e:	41 f4       	brne	.+16     	; 0x260 <set_time+0xd0>
			{
				if(time_s[godzina]<23)
 250:	89 81       	ldd	r24, Y+1	; 0x01
 252:	87 31       	cpi	r24, 0x17	; 23
 254:	18 f4       	brcc	.+6      	; 0x25c <set_time+0xcc>
					time_s[godzina]++;
 256:	8f 5f       	subi	r24, 0xFF	; 255
 258:	89 83       	std	Y+1, r24	; 0x01
 25a:	2b c0       	rjmp	.+86     	; 0x2b2 <set_time+0x122>
				else
					time_s[godzina] = 0;
 25c:	19 82       	std	Y+1, r1	; 0x01
 25e:	29 c0       	rjmp	.+82     	; 0x2b2 <set_time+0x122>
			}
			else if ((set_poz == minuta) || (set_poz == sekunda))
 260:	8c 2d       	mov	r24, r12
 262:	81 50       	subi	r24, 0x01	; 1
 264:	82 30       	cpi	r24, 0x02	; 2
 266:	28 f5       	brcc	.+74     	; 0x2b2 <set_time+0x122>
			{
				if((time_s[set_poz])<59)
 268:	f8 01       	movw	r30, r16
 26a:	ec 0d       	add	r30, r12
 26c:	f1 1d       	adc	r31, r1
 26e:	80 81       	ld	r24, Z
 270:	8b 33       	cpi	r24, 0x3B	; 59
 272:	10 f4       	brcc	.+4      	; 0x278 <set_time+0xe8>
					time_s[set_poz]++;
 274:	8f 5f       	subi	r24, 0xFF	; 255
 276:	1a c0       	rjmp	.+52     	; 0x2ac <set_time+0x11c>
				else
					time_s[set_poz] = 0;
 278:	10 82       	st	Z, r1
 27a:	1b c0       	rjmp	.+54     	; 0x2b2 <set_time+0x122>
			}
			_delay_ms(300);
		}
		else if(sw_check(down))
 27c:	83 e0       	ldi	r24, 0x03	; 3
 27e:	ef de       	rcall	.-546    	; 0x5e <sw_check>
 280:	88 23       	and	r24, r24
 282:	11 f1       	breq	.+68     	; 0x2c8 <set_time+0x138>
		{
			set_on = 1;
			if (set_poz == godzina)
 284:	cc 20       	and	r12, r12
 286:	39 f4       	brne	.+14     	; 0x296 <set_time+0x106>
			{
				if(time_s[godzina]>0)
 288:	89 81       	ldd	r24, Y+1	; 0x01
 28a:	88 23       	and	r24, r24
 28c:	19 f0       	breq	.+6      	; 0x294 <set_time+0x104>
					time_s[godzina]--;
 28e:	81 50       	subi	r24, 0x01	; 1
 290:	89 83       	std	Y+1, r24	; 0x01
 292:	01 c0       	rjmp	.+2      	; 0x296 <set_time+0x106>
				else
					time_s[godzina] = 23;
 294:	e9 82       	std	Y+1, r14	; 0x01
			}
			if ((set_poz == minuta) || (set_poz == sekunda))
 296:	8c 2d       	mov	r24, r12
 298:	81 50       	subi	r24, 0x01	; 1
 29a:	82 30       	cpi	r24, 0x02	; 2
 29c:	50 f4       	brcc	.+20     	; 0x2b2 <set_time+0x122>
			{
				if((time_s[set_poz])>0)
 29e:	f8 01       	movw	r30, r16
 2a0:	ec 0d       	add	r30, r12
 2a2:	f1 1d       	adc	r31, r1
 2a4:	80 81       	ld	r24, Z
 2a6:	88 23       	and	r24, r24
 2a8:	19 f0       	breq	.+6      	; 0x2b0 <set_time+0x120>
					time_s[set_poz]--;
 2aa:	81 50       	subi	r24, 0x01	; 1
 2ac:	80 83       	st	Z, r24
 2ae:	01 c0       	rjmp	.+2      	; 0x2b2 <set_time+0x122>
				else
					time_s[set_poz] = 59;
 2b0:	d0 82       	st	Z, r13
 2b2:	8f ef       	ldi	r24, 0xFF	; 255
 2b4:	92 e5       	ldi	r25, 0x52	; 82
 2b6:	a7 e0       	ldi	r26, 0x07	; 7
 2b8:	81 50       	subi	r24, 0x01	; 1
 2ba:	90 40       	sbci	r25, 0x00	; 0
 2bc:	a0 40       	sbci	r26, 0x00	; 0
 2be:	e1 f7       	brne	.-8      	; 0x2b8 <set_time+0x128>
 2c0:	00 c0       	rjmp	.+0      	; 0x2c2 <set_time+0x132>
 2c2:	00 00       	nop
			}
			_delay_ms(300);
		}
		else if(sw_check(down))
		{
			set_on = 1;
 2c4:	91 e0       	ldi	r25, 0x01	; 1
 2c6:	9c 83       	std	Y+4, r25	; 0x04
				else
					time_s[set_poz] = 59;
			}
			_delay_ms(300);
		}
	}while(!sw_check(left));
 2c8:	80 e0       	ldi	r24, 0x00	; 0
 2ca:	c9 de       	rcall	.-622    	; 0x5e <sw_check>
 2cc:	88 23       	and	r24, r24
 2ce:	09 f4       	brne	.+2      	; 0x2d2 <set_time+0x142>
 2d0:	89 cf       	rjmp	.-238    	; 0x1e4 <set_time+0x54>
	if (set_on==1)
 2d2:	ac 81       	ldd	r26, Y+4	; 0x04
 2d4:	a1 30       	cpi	r26, 0x01	; 1
 2d6:	21 f4       	brne	.+8      	; 0x2e0 <set_time+0x150>
		ustawianie_czasu(time_s[godzina], time_s[minuta], time_s[sekunda]);
 2d8:	89 81       	ldd	r24, Y+1	; 0x01
 2da:	6a 81       	ldd	r22, Y+2	; 0x02
 2dc:	4b 81       	ldd	r20, Y+3	; 0x03
 2de:	f0 de       	rcall	.-544    	; 0xc0 <ustawianie_czasu>
}
 2e0:	0f 90       	pop	r0
 2e2:	0f 90       	pop	r0
 2e4:	0f 90       	pop	r0
 2e6:	0f 90       	pop	r0
 2e8:	cf 91       	pop	r28
 2ea:	df 91       	pop	r29
 2ec:	1f 91       	pop	r17
 2ee:	0f 91       	pop	r16
 2f0:	ff 90       	pop	r15
 2f2:	ef 90       	pop	r14
 2f4:	df 90       	pop	r13
 2f6:	cf 90       	pop	r12
 2f8:	08 95       	ret

000002fa <set_date>:

void set_date()
{
	LCD_Clear();
 2fa:	65 d2       	rcall	.+1226   	; 0x7c6 <LCD_Clear>
	LCD_GoTo4(4,0);
 2fc:	84 e0       	ldi	r24, 0x04	; 4
 2fe:	60 e0       	ldi	r22, 0x00	; 0
 300:	55 d2       	rcall	.+1194   	; 0x7ac <LCD_GoTo4>
	LCD_WriteText("Set Date");
 302:	8f e6       	ldi	r24, 0x6F	; 111
 304:	90 e0       	ldi	r25, 0x00	; 0
 306:	3d d2       	rcall	.+1146   	; 0x782 <LCD_WriteText>
	LCD_GoTo4(3,1);
 308:	83 e0       	ldi	r24, 0x03	; 3
 30a:	61 e0       	ldi	r22, 0x01	; 1
 30c:	4f d2       	rcall	.+1182   	; 0x7ac <LCD_GoTo4>
	LCD_WriteText("03/12/2014");
 30e:	88 e7       	ldi	r24, 0x78	; 120
 310:	90 e0       	ldi	r25, 0x00	; 0
 312:	37 d2       	rcall	.+1134   	; 0x782 <LCD_WriteText>
	do{}while(!sw_check(left));
 314:	80 e0       	ldi	r24, 0x00	; 0
 316:	a3 de       	rcall	.-698    	; 0x5e <sw_check>
 318:	88 23       	and	r24, r24
 31a:	e1 f3       	breq	.-8      	; 0x314 <set_date+0x1a>
}
 31c:	08 95       	ret

0000031e <menu>:

void menu()
{
 31e:	0f 93       	push	r16
 320:	1f 93       	push	r17
	uint8_t pozycja	= 0;
	LCD_Clear();
 322:	51 d2       	rcall	.+1186   	; 0x7c6 <LCD_Clear>
	LCD_GoTo4(1,0);
 324:	81 e0       	ldi	r24, 0x01	; 1
 326:	60 e0       	ldi	r22, 0x00	; 0
 328:	41 d2       	rcall	.+1154   	; 0x7ac <LCD_GoTo4>
	LCD_WriteText("Set Time");
 32a:	80 e6       	ldi	r24, 0x60	; 96
 32c:	90 e0       	ldi	r25, 0x00	; 0
 32e:	29 d2       	rcall	.+1106   	; 0x782 <LCD_WriteText>
	LCD_GoTo4(1,1);
 330:	81 e0       	ldi	r24, 0x01	; 1
 332:	61 e0       	ldi	r22, 0x01	; 1
 334:	3b d2       	rcall	.+1142   	; 0x7ac <LCD_GoTo4>
	LCD_WriteText("Set Date");
 336:	8f e6       	ldi	r24, 0x6F	; 111
 338:	90 e0       	ldi	r25, 0x00	; 0
 33a:	23 d2       	rcall	.+1094   	; 0x782 <LCD_WriteText>
	LCD_GoTo4(0,pozycja);
 33c:	80 e0       	ldi	r24, 0x00	; 0
 33e:	60 e0       	ldi	r22, 0x00	; 0
 340:	35 d2       	rcall	.+1130   	; 0x7ac <LCD_GoTo4>
	LCD_WriteText(">");
 342:	83 e8       	ldi	r24, 0x83	; 131
 344:	90 e0       	ldi	r25, 0x00	; 0
 346:	1d d2       	rcall	.+1082   	; 0x782 <LCD_WriteText>
	do{}while(!sw_check(left));
}

void menu()
{
	uint8_t pozycja	= 0;
 348:	10 e0       	ldi	r17, 0x00	; 0
		if(sw_check(up) || sw_check(down))
		{
			LCD_GoTo4(0,pozycja);
			LCD_WriteText(" ");
			if (pozycja==1)
				pozycja = 0;
 34a:	01 e0       	ldi	r16, 0x01	; 1
	LCD_WriteText("Set Date");
	LCD_GoTo4(0,pozycja);
	LCD_WriteText(">");
	do
	{
		if(sw_check(up) || sw_check(down))
 34c:	82 e0       	ldi	r24, 0x02	; 2
 34e:	87 de       	rcall	.-754    	; 0x5e <sw_check>
 350:	88 23       	and	r24, r24
 352:	21 f4       	brne	.+8      	; 0x35c <menu+0x3e>
 354:	83 e0       	ldi	r24, 0x03	; 3
 356:	83 de       	rcall	.-762    	; 0x5e <sw_check>
 358:	88 23       	and	r24, r24
 35a:	69 f0       	breq	.+26     	; 0x376 <menu+0x58>
		{
			LCD_GoTo4(0,pozycja);
 35c:	80 e0       	ldi	r24, 0x00	; 0
 35e:	61 2f       	mov	r22, r17
 360:	25 d2       	rcall	.+1098   	; 0x7ac <LCD_GoTo4>
			LCD_WriteText(" ");
 362:	85 e8       	ldi	r24, 0x85	; 133
 364:	90 e0       	ldi	r25, 0x00	; 0
 366:	0d d2       	rcall	.+1050   	; 0x782 <LCD_WriteText>
			if (pozycja==1)
				pozycja = 0;
 368:	10 27       	eor	r17, r16
			else
				pozycja = 1;
			LCD_GoTo4(0,pozycja);
 36a:	80 e0       	ldi	r24, 0x00	; 0
 36c:	61 2f       	mov	r22, r17
 36e:	1e d2       	rcall	.+1084   	; 0x7ac <LCD_GoTo4>
			LCD_WriteText(">");
 370:	83 e8       	ldi	r24, 0x83	; 131
 372:	90 e0       	ldi	r25, 0x00	; 0
 374:	06 d2       	rcall	.+1036   	; 0x782 <LCD_WriteText>
 376:	8f ef       	ldi	r24, 0xFF	; 255
 378:	92 e5       	ldi	r25, 0x52	; 82
 37a:	a7 e0       	ldi	r26, 0x07	; 7
 37c:	81 50       	subi	r24, 0x01	; 1
 37e:	90 40       	sbci	r25, 0x00	; 0
 380:	a0 40       	sbci	r26, 0x00	; 0
 382:	e1 f7       	brne	.-8      	; 0x37c <menu+0x5e>
 384:	00 c0       	rjmp	.+0      	; 0x386 <menu+0x68>
 386:	00 00       	nop
		}
		_delay_ms(300);
		if(sw_check(right) && pozycja ==0)
 388:	81 e0       	ldi	r24, 0x01	; 1
 38a:	69 de       	rcall	.-814    	; 0x5e <sw_check>
 38c:	88 23       	and	r24, r24
 38e:	29 f0       	breq	.+10     	; 0x39a <menu+0x7c>
 390:	11 23       	and	r17, r17
 392:	19 f4       	brne	.+6      	; 0x39a <menu+0x7c>
			set_time(czas);
 394:	82 e6       	ldi	r24, 0x62	; 98
 396:	91 e0       	ldi	r25, 0x01	; 1
 398:	fb de       	rcall	.-522    	; 0x190 <set_time>
		if(sw_check(right) && pozycja ==1)
 39a:	81 e0       	ldi	r24, 0x01	; 1
 39c:	60 de       	rcall	.-832    	; 0x5e <sw_check>
 39e:	88 23       	and	r24, r24
 3a0:	19 f0       	breq	.+6      	; 0x3a8 <menu+0x8a>
 3a2:	11 30       	cpi	r17, 0x01	; 1
 3a4:	09 f4       	brne	.+2      	; 0x3a8 <menu+0x8a>
			set_date();
 3a6:	a9 df       	rcall	.-174    	; 0x2fa <set_date>
	}while(!sw_check(left));
 3a8:	80 e0       	ldi	r24, 0x00	; 0
 3aa:	59 de       	rcall	.-846    	; 0x5e <sw_check>
 3ac:	88 23       	and	r24, r24
 3ae:	71 f2       	breq	.-100    	; 0x34c <menu+0x2e>
	LCD_Clear();
 3b0:	0a d2       	rcall	.+1044   	; 0x7c6 <LCD_Clear>
}
 3b2:	1f 91       	pop	r17
 3b4:	0f 91       	pop	r16
 3b6:	08 95       	ret

000003b8 <temp_min>:

void temp_min()
{
	LCD_Clear();
 3b8:	06 d2       	rcall	.+1036   	; 0x7c6 <LCD_Clear>
	LCD_GoTo4(0,0); LCD_WriteText("Temp. min.:");
 3ba:	80 e0       	ldi	r24, 0x00	; 0
 3bc:	60 e0       	ldi	r22, 0x00	; 0
 3be:	f6 d1       	rcall	.+1004   	; 0x7ac <LCD_GoTo4>
 3c0:	87 e8       	ldi	r24, 0x87	; 135
 3c2:	90 e0       	ldi	r25, 0x00	; 0
 3c4:	de d1       	rcall	.+956    	; 0x782 <LCD_WriteText>
	LCD_GoTo4(0,3); LCD_WriteText("Esc");
 3c6:	80 e0       	ldi	r24, 0x00	; 0
 3c8:	63 e0       	ldi	r22, 0x03	; 3
 3ca:	f0 d1       	rcall	.+992    	; 0x7ac <LCD_GoTo4>
 3cc:	83 e9       	ldi	r24, 0x93	; 147
 3ce:	90 e0       	ldi	r25, 0x00	; 0
 3d0:	d8 d1       	rcall	.+944    	; 0x782 <LCD_WriteText>
	LCD_GoTo4(11,3); LCD_WriteText("Clear");
 3d2:	8b e0       	ldi	r24, 0x0B	; 11
 3d4:	63 e0       	ldi	r22, 0x03	; 3
 3d6:	ea d1       	rcall	.+980    	; 0x7ac <LCD_GoTo4>
 3d8:	87 e9       	ldi	r24, 0x97	; 151
 3da:	90 e0       	ldi	r25, 0x00	; 0
 3dc:	d2 d1       	rcall	.+932    	; 0x782 <LCD_WriteText>
	do
	{
		LCD_GoTo4(0,1);	LCD_WriteData(0x7F);	wysw_temp(temp_0_min,0);
 3de:	80 e0       	ldi	r24, 0x00	; 0
 3e0:	61 e0       	ldi	r22, 0x01	; 1
 3e2:	e4 d1       	rcall	.+968    	; 0x7ac <LCD_GoTo4>
 3e4:	8f e7       	ldi	r24, 0x7F	; 127
 3e6:	c7 d1       	rcall	.+910    	; 0x776 <LCD_WriteData>
 3e8:	8c eb       	ldi	r24, 0xBC	; 188
 3ea:	90 e0       	ldi	r25, 0x00	; 0
 3ec:	60 e0       	ldi	r22, 0x00	; 0
 3ee:	16 d3       	rcall	.+1580   	; 0xa1c <wysw_temp>
		LCD_GoTo4(8,1);	wysw_czas(czas_temp_0_min);
 3f0:	88 e0       	ldi	r24, 0x08	; 8
 3f2:	61 e0       	ldi	r22, 0x01	; 1
 3f4:	db d1       	rcall	.+950    	; 0x7ac <LCD_GoTo4>
 3f6:	89 e5       	ldi	r24, 0x59	; 89
 3f8:	91 e0       	ldi	r25, 0x01	; 1
 3fa:	d8 d3       	rcall	.+1968   	; 0xbac <wysw_czas>
		LCD_GoTo4(0,2); LCD_WriteData(0x7E);	wysw_temp(temp_1_min,0);
 3fc:	80 e0       	ldi	r24, 0x00	; 0
 3fe:	62 e0       	ldi	r22, 0x02	; 2
 400:	d5 d1       	rcall	.+938    	; 0x7ac <LCD_GoTo4>
 402:	8e e7       	ldi	r24, 0x7E	; 126
 404:	b8 d1       	rcall	.+880    	; 0x776 <LCD_WriteData>
 406:	82 ec       	ldi	r24, 0xC2	; 194
 408:	90 e0       	ldi	r25, 0x00	; 0
 40a:	60 e0       	ldi	r22, 0x00	; 0
 40c:	07 d3       	rcall	.+1550   	; 0xa1c <wysw_temp>
		LCD_GoTo4(8,2); wysw_czas(czas_temp_1_min);
 40e:	88 e0       	ldi	r24, 0x08	; 8
 410:	62 e0       	ldi	r22, 0x02	; 2
 412:	cc d1       	rcall	.+920    	; 0x7ac <LCD_GoTo4>
 414:	8a e6       	ldi	r24, 0x6A	; 106
 416:	91 e0       	ldi	r25, 0x01	; 1
 418:	c9 d3       	rcall	.+1938   	; 0xbac <wysw_czas>

		if(sw_check(right))
 41a:	81 e0       	ldi	r24, 0x01	; 1
 41c:	20 de       	rcall	.-960    	; 0x5e <sw_check>
 41e:	88 23       	and	r24, r24
 420:	21 f1       	breq	.+72     	; 0x46a <__stack+0xb>
		{
			for (int i=0;i<3;i++)
			{
				temp_0_min[i]		= 0;
 422:	10 92 bd 00 	sts	0x00BD, r1
 426:	10 92 bc 00 	sts	0x00BC, r1
				temp_1_min[i]		= 0;
 42a:	10 92 c3 00 	sts	0x00C3, r1
 42e:	10 92 c2 00 	sts	0x00C2, r1
				czas_temp_0_min[i]	= 0;
 432:	10 92 59 01 	sts	0x0159, r1
				czas_temp_1_min[i]	= 0;
 436:	10 92 6a 01 	sts	0x016A, r1

		if(sw_check(right))
		{
			for (int i=0;i<3;i++)
			{
				temp_0_min[i]		= 0;
 43a:	10 92 bf 00 	sts	0x00BF, r1
 43e:	10 92 be 00 	sts	0x00BE, r1
				temp_1_min[i]		= 0;
 442:	10 92 c5 00 	sts	0x00C5, r1
 446:	10 92 c4 00 	sts	0x00C4, r1
				czas_temp_0_min[i]	= 0;
 44a:	10 92 5a 01 	sts	0x015A, r1
				czas_temp_1_min[i]	= 0;
 44e:	10 92 6b 01 	sts	0x016B, r1

		if(sw_check(right))
		{
			for (int i=0;i<3;i++)
			{
				temp_0_min[i]		= 0;
 452:	10 92 c1 00 	sts	0x00C1, r1
 456:	10 92 c0 00 	sts	0x00C0, r1
				temp_1_min[i]		= 0;
 45a:	10 92 c7 00 	sts	0x00C7, r1
 45e:	10 92 c6 00 	sts	0x00C6, r1
				czas_temp_0_min[i]	= 0;
 462:	10 92 5b 01 	sts	0x015B, r1
				czas_temp_1_min[i]	= 0;
 466:	10 92 6c 01 	sts	0x016C, r1
			}

		}
	}while(!sw_check(left));
 46a:	80 e0       	ldi	r24, 0x00	; 0
 46c:	f8 dd       	rcall	.-1040   	; 0x5e <sw_check>
 46e:	88 23       	and	r24, r24
 470:	09 f4       	brne	.+2      	; 0x474 <__stack+0x15>
 472:	b5 cf       	rjmp	.-150    	; 0x3de <temp_min+0x26>
	LCD_Clear();
 474:	a8 d1       	rcall	.+848    	; 0x7c6 <LCD_Clear>
}
 476:	08 95       	ret

00000478 <temp_max>:
void temp_max()
{
	LCD_Clear();
 478:	a6 d1       	rcall	.+844    	; 0x7c6 <LCD_Clear>
	LCD_GoTo4(0,0); LCD_WriteText("Temp. max.:");
 47a:	80 e0       	ldi	r24, 0x00	; 0
 47c:	60 e0       	ldi	r22, 0x00	; 0
 47e:	96 d1       	rcall	.+812    	; 0x7ac <LCD_GoTo4>
 480:	8d e9       	ldi	r24, 0x9D	; 157
 482:	90 e0       	ldi	r25, 0x00	; 0
 484:	7e d1       	rcall	.+764    	; 0x782 <LCD_WriteText>
	LCD_GoTo4(0,3); LCD_WriteText("Esc");
 486:	80 e0       	ldi	r24, 0x00	; 0
 488:	63 e0       	ldi	r22, 0x03	; 3
 48a:	90 d1       	rcall	.+800    	; 0x7ac <LCD_GoTo4>
 48c:	83 e9       	ldi	r24, 0x93	; 147
 48e:	90 e0       	ldi	r25, 0x00	; 0
 490:	78 d1       	rcall	.+752    	; 0x782 <LCD_WriteText>
	LCD_GoTo4(11,3); LCD_WriteText("Clear");
 492:	8b e0       	ldi	r24, 0x0B	; 11
 494:	63 e0       	ldi	r22, 0x03	; 3
 496:	8a d1       	rcall	.+788    	; 0x7ac <LCD_GoTo4>
 498:	87 e9       	ldi	r24, 0x97	; 151
 49a:	90 e0       	ldi	r25, 0x00	; 0
 49c:	72 d1       	rcall	.+740    	; 0x782 <LCD_WriteText>
	do
	{

	}while(!sw_check(left));
 49e:	80 e0       	ldi	r24, 0x00	; 0
 4a0:	de dd       	rcall	.-1092   	; 0x5e <sw_check>
 4a2:	88 23       	and	r24, r24
 4a4:	e1 f3       	breq	.-8      	; 0x49e <temp_max+0x26>
	LCD_Clear();
 4a6:	8f d1       	rcall	.+798    	; 0x7c6 <LCD_Clear>

}
 4a8:	08 95       	ret

000004aa <main>:

int main(void)
{
	PORTC = 0x30;		// pull-up na liniach SDA, SCL (interfejs I2C)
 4aa:	80 e3       	ldi	r24, 0x30	; 48
 4ac:	85 bb       	out	0x15, r24	; 21
	DDRD = 0x00;		// port D jako wejœcia
 4ae:	11 ba       	out	0x11, r1	; 17
	PORTD = 0xFF;		// pull-up na wejœciach portu D
 4b0:	8f ef       	ldi	r24, 0xFF	; 255
 4b2:	82 bb       	out	0x12, r24	; 18
	DDRB = 0xFE;		// PB0 - wejœcie, PB1..PB7 - wyjœcia
 4b4:	8e ef       	ldi	r24, 0xFE	; 254
 4b6:	87 bb       	out	0x17, r24	; 23
	PORTB |= (sw_down) | (brzeczyk);
 4b8:	88 b3       	in	r24, 0x18	; 24
 4ba:	81 68       	ori	r24, 0x81	; 129
 4bc:	88 bb       	out	0x18, r24	; 24
	LCD_Initalize();
 4be:	91 d1       	rcall	.+802    	; 0x7e2 <LCD_Initalize>
	Timer1_Init();
 4c0:	ea d3       	rcall	.+2004   	; 0xc96 <Timer1_Init>
	
	//PORTB |= podsw_LCD; // w³¹czenie podœwietlania LCD przy starcie 
	OCR1A = 0xFF;
 4c2:	8f ef       	ldi	r24, 0xFF	; 255
 4c4:	90 e0       	ldi	r25, 0x00	; 0
 4c6:	9b bd       	out	0x2b, r25	; 43
 4c8:	8a bd       	out	0x2a, r24	; 42
	
	LCD_GoTo4(0,0);
 4ca:	80 e0       	ldi	r24, 0x00	; 0
 4cc:	60 e0       	ldi	r22, 0x00	; 0
 4ce:	6e d1       	rcall	.+732    	; 0x7ac <LCD_GoTo4>
	LCD_WriteText("..."); 
 4d0:	89 ea       	ldi	r24, 0xA9	; 169
 4d2:	90 e0       	ldi	r25, 0x00	; 0
 4d4:	56 d1       	rcall	.+684    	; 0x782 <LCD_WriteText>
 4d6:	05 c0       	rjmp	.+10     	; 0x4e2 <main+0x38>
		


//////////////////// KONTRAST ////////////////////		
		while(sw_check(przycisk) && sw_check(up))
			OCR1A+=15;
 4d8:	8a b5       	in	r24, 0x2a	; 42
 4da:	9b b5       	in	r25, 0x2b	; 43
 4dc:	0f 96       	adiw	r24, 0x0f	; 15
 4de:	9b bd       	out	0x2b, r25	; 43
 4e0:	8a bd       	out	0x2a, r24	; 42
	{
		


//////////////////// KONTRAST ////////////////////		
		while(sw_check(przycisk) && sw_check(up))
 4e2:	84 e0       	ldi	r24, 0x04	; 4
 4e4:	bc dd       	rcall	.-1160   	; 0x5e <sw_check>
 4e6:	88 23       	and	r24, r24
 4e8:	51 f0       	breq	.+20     	; 0x4fe <main+0x54>
 4ea:	82 e0       	ldi	r24, 0x02	; 2
 4ec:	b8 dd       	rcall	.-1168   	; 0x5e <sw_check>
 4ee:	88 23       	and	r24, r24
 4f0:	99 f7       	brne	.-26     	; 0x4d8 <main+0x2e>
 4f2:	05 c0       	rjmp	.+10     	; 0x4fe <main+0x54>
			OCR1A+=15;
		while(sw_check(przycisk) && sw_check(down))
			OCR1A-=15;
 4f4:	8a b5       	in	r24, 0x2a	; 42
 4f6:	9b b5       	in	r25, 0x2b	; 43
 4f8:	0f 97       	sbiw	r24, 0x0f	; 15
 4fa:	9b bd       	out	0x2b, r25	; 43
 4fc:	8a bd       	out	0x2a, r24	; 42


//////////////////// KONTRAST ////////////////////		
		while(sw_check(przycisk) && sw_check(up))
			OCR1A+=15;
		while(sw_check(przycisk) && sw_check(down))
 4fe:	84 e0       	ldi	r24, 0x04	; 4
 500:	ae dd       	rcall	.-1188   	; 0x5e <sw_check>
 502:	88 23       	and	r24, r24
 504:	21 f0       	breq	.+8      	; 0x50e <main+0x64>
 506:	83 e0       	ldi	r24, 0x03	; 3
 508:	aa dd       	rcall	.-1196   	; 0x5e <sw_check>
 50a:	88 23       	and	r24, r24
 50c:	99 f7       	brne	.-26     	; 0x4f4 <main+0x4a>
			OCR1A-=15;

////////////////////// MENU //////////////////////
		if (sw_check(right))
 50e:	81 e0       	ldi	r24, 0x01	; 1
 510:	a6 dd       	rcall	.-1204   	; 0x5e <sw_check>
 512:	81 11       	cpse	r24, r1
			menu();
 514:	04 df       	rcall	.-504    	; 0x31e <menu>
		if (sw_check(down))
 516:	83 e0       	ldi	r24, 0x03	; 3
 518:	a2 dd       	rcall	.-1212   	; 0x5e <sw_check>
 51a:	81 11       	cpse	r24, r1
			temp_min();
 51c:	4d df       	rcall	.-358    	; 0x3b8 <temp_min>
		if (sw_check(up))
 51e:	82 e0       	ldi	r24, 0x02	; 2
 520:	9e dd       	rcall	.-1220   	; 0x5e <sw_check>
 522:	81 11       	cpse	r24, r1
			temp_max();
 524:	a9 df       	rcall	.-174    	; 0x478 <temp_max>

//////////////////////////////////////////////////

		LCD_GoTo4(0,0);
 526:	80 e0       	ldi	r24, 0x00	; 0
 528:	60 e0       	ldi	r22, 0x00	; 0
 52a:	40 d1       	rcall	.+640    	; 0x7ac <LCD_GoTo4>
		LCD_WriteData(0x7F);
 52c:	8f e7       	ldi	r24, 0x7F	; 127
 52e:	23 d1       	rcall	.+582    	; 0x776 <LCD_WriteData>
		if(!(PIND & t0_var)){
 530:	80 99       	sbic	0x10, 0	; 16
 532:	09 c0       	rjmp	.+18     	; 0x546 <main+0x9c>
			odczyt_temp(temp_0,0);		
 534:	8c e5       	ldi	r24, 0x5C	; 92
 536:	91 e0       	ldi	r25, 0x01	; 1
 538:	60 e0       	ldi	r22, 0x00	; 0
 53a:	9c d2       	rcall	.+1336   	; 0xa74 <odczyt_temp>
			wysw_temp(temp_0,0);}
 53c:	8c e5       	ldi	r24, 0x5C	; 92
 53e:	91 e0       	ldi	r25, 0x01	; 1
 540:	60 e0       	ldi	r22, 0x00	; 0
 542:	6c d2       	rcall	.+1240   	; 0xa1c <wysw_temp>
 544:	03 c0       	rjmp	.+6      	; 0x54c <main+0xa2>
		else
			LCD_WriteText(" OFF   ");
 546:	8d ea       	ldi	r24, 0xAD	; 173
 548:	90 e0       	ldi	r25, 0x00	; 0
 54a:	1b d1       	rcall	.+566    	; 0x782 <LCD_WriteText>

		LCD_GoTo4(8,0);
 54c:	88 e0       	ldi	r24, 0x08	; 8
 54e:	60 e0       	ldi	r22, 0x00	; 0
 550:	2d d1       	rcall	.+602    	; 0x7ac <LCD_GoTo4>
		LCD_WriteData(0x7E);
 552:	8e e7       	ldi	r24, 0x7E	; 126
 554:	10 d1       	rcall	.+544    	; 0x776 <LCD_WriteData>
		if(!(PIND & t1_var)){
 556:	81 99       	sbic	0x10, 1	; 16
 558:	09 c0       	rjmp	.+18     	; 0x56c <main+0xc2>
			odczyt_temp(temp_1,1);						
 55a:	8d e6       	ldi	r24, 0x6D	; 109
 55c:	91 e0       	ldi	r25, 0x01	; 1
 55e:	61 e0       	ldi	r22, 0x01	; 1
 560:	89 d2       	rcall	.+1298   	; 0xa74 <odczyt_temp>
			wysw_temp(temp_1,1);}
 562:	8d e6       	ldi	r24, 0x6D	; 109
 564:	91 e0       	ldi	r25, 0x01	; 1
 566:	61 e0       	ldi	r22, 0x01	; 1
 568:	59 d2       	rcall	.+1202   	; 0xa1c <wysw_temp>
 56a:	03 c0       	rjmp	.+6      	; 0x572 <main+0xc8>
		else
			LCD_WriteText(" OFF   ");
 56c:	8d ea       	ldi	r24, 0xAD	; 173
 56e:	90 e0       	ldi	r25, 0x00	; 0
 570:	08 d1       	rcall	.+528    	; 0x782 <LCD_WriteText>
		
		LCD_GoTo4(4,1);
 572:	84 e0       	ldi	r24, 0x04	; 4
 574:	61 e0       	ldi	r22, 0x01	; 1
 576:	1a d1       	rcall	.+564    	; 0x7ac <LCD_GoTo4>
		odczyt_czasu(czas);	
 578:	82 e6       	ldi	r24, 0x62	; 98
 57a:	91 e0       	ldi	r25, 0x01	; 1
 57c:	6c d3       	rcall	.+1752   	; 0xc56 <odczyt_czasu>
		wysw_czas(czas);
 57e:	82 e6       	ldi	r24, 0x62	; 98
 580:	91 e0       	ldi	r25, 0x01	; 1
 582:	14 d3       	rcall	.+1576   	; 0xbac <wysw_czas>

		if (czas[minuta]==0 && czas_temp==59)
 584:	80 91 63 01 	lds	r24, 0x0163
 588:	88 23       	and	r24, r24
 58a:	e9 f4       	brne	.+58     	; 0x5c6 <main+0x11c>
 58c:	80 91 43 01 	lds	r24, 0x0143
 590:	8b 33       	cpi	r24, 0x3B	; 59
 592:	71 f5       	brne	.+92     	; 0x5f0 <main+0x146>
		{	
			PORTB ^= brzeczyk;
 594:	88 b3       	in	r24, 0x18	; 24
 596:	80 58       	subi	r24, 0x80	; 128
 598:	88 bb       	out	0x18, r24	; 24
 59a:	8f ef       	ldi	r24, 0xFF	; 255
 59c:	93 ef       	ldi	r25, 0xF3	; 243
 59e:	a1 e0       	ldi	r26, 0x01	; 1
 5a0:	81 50       	subi	r24, 0x01	; 1
 5a2:	90 40       	sbci	r25, 0x00	; 0
 5a4:	a0 40       	sbci	r26, 0x00	; 0
 5a6:	e1 f7       	brne	.-8      	; 0x5a0 <main+0xf6>
 5a8:	00 c0       	rjmp	.+0      	; 0x5aa <main+0x100>
 5aa:	00 00       	nop
			_delay_ms(80);
			PORTB ^= brzeczyk;
 5ac:	88 b3       	in	r24, 0x18	; 24
 5ae:	80 58       	subi	r24, 0x80	; 128
 5b0:	88 bb       	out	0x18, r24	; 24
 5b2:	8f ef       	ldi	r24, 0xFF	; 255
 5b4:	99 ef       	ldi	r25, 0xF9	; 249
 5b6:	a0 e0       	ldi	r26, 0x00	; 0
 5b8:	81 50       	subi	r24, 0x01	; 1
 5ba:	90 40       	sbci	r25, 0x00	; 0
 5bc:	a0 40       	sbci	r26, 0x00	; 0
 5be:	e1 f7       	brne	.-8      	; 0x5b8 <main+0x10e>
 5c0:	00 c0       	rjmp	.+0      	; 0x5c2 <main+0x118>
 5c2:	00 00       	nop
 5c4:	06 c0       	rjmp	.+12     	; 0x5d2 <main+0x128>
			_delay_ms(40);
			PORTB ^= brzeczyk;
			_delay_ms(80);
			PORTB ^= brzeczyk;
		}
		else if (czas[minuta]==30 && czas_temp==29)
 5c6:	8e 31       	cpi	r24, 0x1E	; 30
 5c8:	99 f4       	brne	.+38     	; 0x5f0 <main+0x146>
 5ca:	80 91 43 01 	lds	r24, 0x0143
 5ce:	8d 31       	cpi	r24, 0x1D	; 29
 5d0:	79 f4       	brne	.+30     	; 0x5f0 <main+0x146>
		{
			PORTB ^= brzeczyk;
 5d2:	88 b3       	in	r24, 0x18	; 24
 5d4:	80 58       	subi	r24, 0x80	; 128
 5d6:	88 bb       	out	0x18, r24	; 24
 5d8:	8f ef       	ldi	r24, 0xFF	; 255
 5da:	93 ef       	ldi	r25, 0xF3	; 243
 5dc:	a1 e0       	ldi	r26, 0x01	; 1
 5de:	81 50       	subi	r24, 0x01	; 1
 5e0:	90 40       	sbci	r25, 0x00	; 0
 5e2:	a0 40       	sbci	r26, 0x00	; 0
 5e4:	e1 f7       	brne	.-8      	; 0x5de <main+0x134>
 5e6:	00 c0       	rjmp	.+0      	; 0x5e8 <main+0x13e>
 5e8:	00 00       	nop
			_delay_ms(80);
			PORTB ^= brzeczyk;
 5ea:	88 b3       	in	r24, 0x18	; 24
 5ec:	80 58       	subi	r24, 0x80	; 128
 5ee:	88 bb       	out	0x18, r24	; 24
		}
		czas_temp = czas[minuta];
 5f0:	80 91 63 01 	lds	r24, 0x0163
 5f4:	80 93 43 01 	sts	0x0143, r24

		odczyt_daty(data);
 5f8:	85 e6       	ldi	r24, 0x65	; 101
 5fa:	91 e0       	ldi	r25, 0x01	; 1
 5fc:	f8 d2       	rcall	.+1520   	; 0xbee <odczyt_daty>
		if (data[rok_reszta]==0 && rok_temp==3)
 5fe:	80 91 65 01 	lds	r24, 0x0165
 602:	88 23       	and	r24, r24
 604:	a9 f4       	brne	.+42     	; 0x630 <main+0x186>
 606:	90 91 42 01 	lds	r25, 0x0142
 60a:	93 30       	cpi	r25, 0x03	; 3
 60c:	89 f4       	brne	.+34     	; 0x630 <main+0x186>
		{
			rok_temp=data[rok_reszta];
 60e:	10 92 42 01 	sts	0x0142, r1
			data[rok_RAM]++;
 612:	80 91 66 01 	lds	r24, 0x0166
 616:	8f 5f       	subi	r24, 0xFF	; 255
 618:	80 93 66 01 	sts	0x0166, r24
			TWI_Start();
 61c:	71 d1       	rcall	.+738    	; 0x900 <TWI_Start>
			TWI_Write(0xA0);			
 61e:	80 ea       	ldi	r24, 0xA0	; 160
 620:	7b d1       	rcall	.+758    	; 0x918 <TWI_Write>
			TWI_Write(0x10);
 622:	80 e1       	ldi	r24, 0x10	; 16
 624:	79 d1       	rcall	.+754    	; 0x918 <TWI_Write>
			TWI_Write(data[rok_RAM]);
 626:	80 91 66 01 	lds	r24, 0x0166
 62a:	76 d1       	rcall	.+748    	; 0x918 <TWI_Write>
			TWI_Stop();
 62c:	6f d1       	rcall	.+734    	; 0x90c <TWI_Stop>
 62e:	02 c0       	rjmp	.+4      	; 0x634 <main+0x18a>
		}
		else
			rok_temp=data[rok_reszta];
 630:	80 93 42 01 	sts	0x0142, r24
		
		LCD_GoTo4(2,2);
 634:	82 e0       	ldi	r24, 0x02	; 2
 636:	62 e0       	ldi	r22, 0x02	; 2
 638:	b9 d0       	rcall	.+370    	; 0x7ac <LCD_GoTo4>
		LCD_WriteText(wysw_dzien_tyg(data[dzien_tyg]));
 63a:	80 91 69 01 	lds	r24, 0x0169
 63e:	8d d2       	rcall	.+1306   	; 0xb5a <wysw_dzien_tyg>
 640:	a0 d0       	rcall	.+320    	; 0x782 <LCD_WriteText>
	
		LCD_GoTo4(3,3);
 642:	83 e0       	ldi	r24, 0x03	; 3
 644:	63 e0       	ldi	r22, 0x03	; 3
 646:	b2 d0       	rcall	.+356    	; 0x7ac <LCD_GoTo4>
		LCD_WriteInt(BcdToInt(data[dzien]),1);					LCD_WriteText("/");
 648:	80 91 68 01 	lds	r24, 0x0168
 64c:	92 d1       	rcall	.+804    	; 0x972 <BcdToInt>
 64e:	90 e0       	ldi	r25, 0x00	; 0
 650:	61 e0       	ldi	r22, 0x01	; 1
 652:	25 d1       	rcall	.+586    	; 0x89e <LCD_WriteInt>
 654:	85 eb       	ldi	r24, 0xB5	; 181
 656:	90 e0       	ldi	r25, 0x00	; 0
 658:	94 d0       	rcall	.+296    	; 0x782 <LCD_WriteText>
		LCD_WriteInt(BcdToInt(data[miesiac]),1);				LCD_WriteText("/");
 65a:	80 91 67 01 	lds	r24, 0x0167
 65e:	89 d1       	rcall	.+786    	; 0x972 <BcdToInt>
 660:	90 e0       	ldi	r25, 0x00	; 0
 662:	61 e0       	ldi	r22, 0x01	; 1
 664:	1c d1       	rcall	.+568    	; 0x89e <LCD_WriteInt>
 666:	85 eb       	ldi	r24, 0xB5	; 181
 668:	90 e0       	ldi	r25, 0x00	; 0
 66a:	8b d0       	rcall	.+278    	; 0x782 <LCD_WriteText>
		LCD_WriteText("20");
 66c:	87 eb       	ldi	r24, 0xB7	; 183
 66e:	90 e0       	ldi	r25, 0x00	; 0
 670:	88 d0       	rcall	.+272    	; 0x782 <LCD_WriteText>
		if ((data[rok_RAM] * 4 + data[rok_reszta])<10)
 672:	80 91 66 01 	lds	r24, 0x0166
 676:	90 e0       	ldi	r25, 0x00	; 0
 678:	88 0f       	add	r24, r24
 67a:	99 1f       	adc	r25, r25
 67c:	88 0f       	add	r24, r24
 67e:	99 1f       	adc	r25, r25
 680:	20 91 65 01 	lds	r18, 0x0165
 684:	82 0f       	add	r24, r18
 686:	91 1d       	adc	r25, r1
 688:	8a 30       	cpi	r24, 0x0A	; 10
 68a:	91 05       	cpc	r25, r1
 68c:	1c f4       	brge	.+6      	; 0x694 <main+0x1ea>
			LCD_WriteText("0");
 68e:	8a eb       	ldi	r24, 0xBA	; 186
 690:	90 e0       	ldi	r25, 0x00	; 0
 692:	77 d0       	rcall	.+238    	; 0x782 <LCD_WriteText>
		LCD_WriteInt(data[rok_RAM] * 4 + data[rok_reszta],0);
 694:	80 91 66 01 	lds	r24, 0x0166
 698:	90 e0       	ldi	r25, 0x00	; 0
 69a:	88 0f       	add	r24, r24
 69c:	99 1f       	adc	r25, r25
 69e:	88 0f       	add	r24, r24
 6a0:	99 1f       	adc	r25, r25
 6a2:	20 91 65 01 	lds	r18, 0x0165
 6a6:	82 0f       	add	r24, r18
 6a8:	91 1d       	adc	r25, r1
 6aa:	60 e0       	ldi	r22, 0x00	; 0
 6ac:	f8 d0       	rcall	.+496    	; 0x89e <LCD_WriteInt>

		sprawdz_temp_min(temp_0, temp_0_min, czas, czas_temp_0_min);
 6ae:	8c e5       	ldi	r24, 0x5C	; 92
 6b0:	91 e0       	ldi	r25, 0x01	; 1
 6b2:	6c eb       	ldi	r22, 0xBC	; 188
 6b4:	70 e0       	ldi	r23, 0x00	; 0
 6b6:	42 e6       	ldi	r20, 0x62	; 98
 6b8:	51 e0       	ldi	r21, 0x01	; 1
 6ba:	29 e5       	ldi	r18, 0x59	; 89
 6bc:	31 e0       	ldi	r19, 0x01	; 1
 6be:	63 d1       	rcall	.+710    	; 0x986 <sprawdz_temp_min>
		sprawdz_temp_min(temp_1, temp_1_min, czas, czas_temp_1_min);
 6c0:	8d e6       	ldi	r24, 0x6D	; 109
 6c2:	91 e0       	ldi	r25, 0x01	; 1
 6c4:	62 ec       	ldi	r22, 0xC2	; 194
 6c6:	70 e0       	ldi	r23, 0x00	; 0
 6c8:	42 e6       	ldi	r20, 0x62	; 98
 6ca:	51 e0       	ldi	r21, 0x01	; 1
 6cc:	2a e6       	ldi	r18, 0x6A	; 106
 6ce:	31 e0       	ldi	r19, 0x01	; 1
 6d0:	5a d1       	rcall	.+692    	; 0x986 <sprawdz_temp_min>
 6d2:	07 cf       	rjmp	.-498    	; 0x4e2 <main+0x38>

000006d4 <_LCD_OutNibble>:
 6d4:	80 ff       	sbrs	r24, 0
 6d6:	02 c0       	rjmp	.+4      	; 0x6dc <_LCD_OutNibble+0x8>
 6d8:	ab 9a       	sbi	0x15, 3	; 21
 6da:	01 c0       	rjmp	.+2      	; 0x6de <_LCD_OutNibble+0xa>
 6dc:	ab 98       	cbi	0x15, 3	; 21
 6de:	81 ff       	sbrs	r24, 1
 6e0:	02 c0       	rjmp	.+4      	; 0x6e6 <_LCD_OutNibble+0x12>
 6e2:	aa 9a       	sbi	0x15, 2	; 21
 6e4:	01 c0       	rjmp	.+2      	; 0x6e8 <_LCD_OutNibble+0x14>
 6e6:	aa 98       	cbi	0x15, 2	; 21
 6e8:	82 ff       	sbrs	r24, 2
 6ea:	02 c0       	rjmp	.+4      	; 0x6f0 <_LCD_OutNibble+0x1c>
 6ec:	a9 9a       	sbi	0x15, 1	; 21
 6ee:	01 c0       	rjmp	.+2      	; 0x6f2 <_LCD_OutNibble+0x1e>
 6f0:	a9 98       	cbi	0x15, 1	; 21
 6f2:	83 ff       	sbrs	r24, 3
 6f4:	02 c0       	rjmp	.+4      	; 0x6fa <_LCD_OutNibble+0x26>
 6f6:	a8 9a       	sbi	0x15, 0	; 21
 6f8:	08 95       	ret
 6fa:	a8 98       	cbi	0x15, 0	; 21
 6fc:	08 95       	ret

000006fe <_LCD_InNibble>:
 6fe:	83 b3       	in	r24, 0x13	; 19
 700:	90 e0       	ldi	r25, 0x00	; 0
 702:	23 e0       	ldi	r18, 0x03	; 3
 704:	96 95       	lsr	r25
 706:	87 95       	ror	r24
 708:	2a 95       	dec	r18
 70a:	e1 f7       	brne	.-8      	; 0x704 <_LCD_InNibble+0x6>
 70c:	81 70       	andi	r24, 0x01	; 1
 70e:	9a 99       	sbic	0x13, 2	; 19
 710:	82 60       	ori	r24, 0x02	; 2
 712:	99 99       	sbic	0x13, 1	; 19
 714:	84 60       	ori	r24, 0x04	; 4
 716:	98 99       	sbic	0x13, 0	; 19
 718:	88 60       	ori	r24, 0x08	; 8
 71a:	08 95       	ret

0000071c <_LCD_Read>:
 71c:	1f 93       	push	r17
 71e:	a3 98       	cbi	0x14, 3	; 20
 720:	a2 98       	cbi	0x14, 2	; 20
 722:	a1 98       	cbi	0x14, 1	; 20
 724:	a0 98       	cbi	0x14, 0	; 20
 726:	c4 9a       	sbi	0x18, 4	; 24
 728:	c3 9a       	sbi	0x18, 3	; 24
 72a:	e9 df       	rcall	.-46     	; 0x6fe <_LCD_InNibble>
 72c:	18 2f       	mov	r17, r24
 72e:	12 95       	swap	r17
 730:	10 7f       	andi	r17, 0xF0	; 240
 732:	c3 98       	cbi	0x18, 3	; 24
 734:	c3 9a       	sbi	0x18, 3	; 24
 736:	e3 df       	rcall	.-58     	; 0x6fe <_LCD_InNibble>
 738:	c3 98       	cbi	0x18, 3	; 24
 73a:	81 2b       	or	r24, r17
 73c:	1f 91       	pop	r17
 73e:	08 95       	ret

00000740 <LCD_ReadStatus>:
 740:	c5 98       	cbi	0x18, 5	; 24
 742:	ec df       	rcall	.-40     	; 0x71c <_LCD_Read>
 744:	08 95       	ret

00000746 <_LCD_Write>:
 746:	1f 93       	push	r17
 748:	18 2f       	mov	r17, r24
 74a:	a3 9a       	sbi	0x14, 3	; 20
 74c:	a2 9a       	sbi	0x14, 2	; 20
 74e:	a1 9a       	sbi	0x14, 1	; 20
 750:	a0 9a       	sbi	0x14, 0	; 20
 752:	c4 98       	cbi	0x18, 4	; 24
 754:	c3 9a       	sbi	0x18, 3	; 24
 756:	82 95       	swap	r24
 758:	8f 70       	andi	r24, 0x0F	; 15
 75a:	bc df       	rcall	.-136    	; 0x6d4 <_LCD_OutNibble>
 75c:	c3 98       	cbi	0x18, 3	; 24
 75e:	c3 9a       	sbi	0x18, 3	; 24
 760:	81 2f       	mov	r24, r17
 762:	b8 df       	rcall	.-144    	; 0x6d4 <_LCD_OutNibble>
 764:	c3 98       	cbi	0x18, 3	; 24
 766:	ec df       	rcall	.-40     	; 0x740 <LCD_ReadStatus>
 768:	87 fd       	sbrc	r24, 7
 76a:	fd cf       	rjmp	.-6      	; 0x766 <_LCD_Write+0x20>
 76c:	1f 91       	pop	r17
 76e:	08 95       	ret

00000770 <LCD_WriteCommand>:
 770:	c5 98       	cbi	0x18, 5	; 24
 772:	e9 df       	rcall	.-46     	; 0x746 <_LCD_Write>
 774:	08 95       	ret

00000776 <LCD_WriteData>:
 776:	c5 9a       	sbi	0x18, 5	; 24
 778:	e6 df       	rcall	.-52     	; 0x746 <_LCD_Write>
 77a:	08 95       	ret

0000077c <LCD_ReadData>:
 77c:	c5 9a       	sbi	0x18, 5	; 24
 77e:	ce df       	rcall	.-100    	; 0x71c <_LCD_Read>
 780:	08 95       	ret

00000782 <LCD_WriteText>:
 782:	cf 93       	push	r28
 784:	df 93       	push	r29
 786:	ec 01       	movw	r28, r24
 788:	02 c0       	rjmp	.+4      	; 0x78e <LCD_WriteText+0xc>
 78a:	21 96       	adiw	r28, 0x01	; 1
 78c:	f4 df       	rcall	.-24     	; 0x776 <LCD_WriteData>
 78e:	88 81       	ld	r24, Y
 790:	88 23       	and	r24, r24
 792:	d9 f7       	brne	.-10     	; 0x78a <LCD_WriteText+0x8>
 794:	df 91       	pop	r29
 796:	cf 91       	pop	r28
 798:	08 95       	ret

0000079a <LCD_GoTo2>:
 79a:	62 95       	swap	r22
 79c:	66 0f       	add	r22, r22
 79e:	66 0f       	add	r22, r22
 7a0:	60 7c       	andi	r22, 0xC0	; 192
 7a2:	68 0f       	add	r22, r24
 7a4:	86 2f       	mov	r24, r22
 7a6:	80 68       	ori	r24, 0x80	; 128
 7a8:	e3 df       	rcall	.-58     	; 0x770 <LCD_WriteCommand>
 7aa:	08 95       	ret

000007ac <LCD_GoTo4>:
 7ac:	62 30       	cpi	r22, 0x02	; 2
 7ae:	10 f0       	brcs	.+4      	; 0x7b4 <LCD_GoTo4+0x8>
 7b0:	62 50       	subi	r22, 0x02	; 2
 7b2:	80 5f       	subi	r24, 0xF0	; 240
 7b4:	62 95       	swap	r22
 7b6:	66 0f       	add	r22, r22
 7b8:	66 0f       	add	r22, r22
 7ba:	60 7c       	andi	r22, 0xC0	; 192
 7bc:	68 0f       	add	r22, r24
 7be:	86 2f       	mov	r24, r22
 7c0:	80 68       	ori	r24, 0x80	; 128
 7c2:	d6 df       	rcall	.-84     	; 0x770 <LCD_WriteCommand>
 7c4:	08 95       	ret

000007c6 <LCD_Clear>:
 7c6:	81 e0       	ldi	r24, 0x01	; 1
 7c8:	d3 df       	rcall	.-90     	; 0x770 <LCD_WriteCommand>
    milliseconds can be achieved.
 */
void
_delay_loop_2(uint16_t __count)
{
	__asm__ volatile (
 7ca:	80 ea       	ldi	r24, 0xA0	; 160
 7cc:	9f e0       	ldi	r25, 0x0F	; 15
 7ce:	01 97       	sbiw	r24, 0x01	; 1
 7d0:	f1 f7       	brne	.-4      	; 0x7ce <LCD_Clear+0x8>
 7d2:	08 95       	ret

000007d4 <LCD_Home>:
 7d4:	82 e0       	ldi	r24, 0x02	; 2
 7d6:	cc df       	rcall	.-104    	; 0x770 <LCD_WriteCommand>
 7d8:	80 ea       	ldi	r24, 0xA0	; 160
 7da:	9f e0       	ldi	r25, 0x0F	; 15
 7dc:	01 97       	sbiw	r24, 0x01	; 1
 7de:	f1 f7       	brne	.-4      	; 0x7dc <LCD_Home+0x8>
 7e0:	08 95       	ret

000007e2 <LCD_Initalize>:
 7e2:	1f 93       	push	r17
 7e4:	cf 93       	push	r28
 7e6:	df 93       	push	r29
 7e8:	a3 9a       	sbi	0x14, 3	; 20
 7ea:	a2 9a       	sbi	0x14, 2	; 20
 7ec:	a1 9a       	sbi	0x14, 1	; 20
 7ee:	a0 9a       	sbi	0x14, 0	; 20
 7f0:	bb 9a       	sbi	0x17, 3	; 23
 7f2:	bd 9a       	sbi	0x17, 5	; 23
 7f4:	bc 9a       	sbi	0x17, 4	; 23
 7f6:	80 e3       	ldi	r24, 0x30	; 48
 7f8:	95 e7       	ldi	r25, 0x75	; 117
 7fa:	01 97       	sbiw	r24, 0x01	; 1
 7fc:	f1 f7       	brne	.-4      	; 0x7fa <LCD_Initalize+0x18>
 7fe:	c5 98       	cbi	0x18, 5	; 24
 800:	c3 98       	cbi	0x18, 3	; 24
 802:	c4 98       	cbi	0x18, 4	; 24
 804:	10 e0       	ldi	r17, 0x00	; 0
 806:	c0 e1       	ldi	r28, 0x10	; 16
 808:	d7 e2       	ldi	r29, 0x27	; 39
 80a:	c3 9a       	sbi	0x18, 3	; 24
 80c:	83 e0       	ldi	r24, 0x03	; 3
 80e:	62 df       	rcall	.-316    	; 0x6d4 <_LCD_OutNibble>
 810:	c3 98       	cbi	0x18, 3	; 24
 812:	ce 01       	movw	r24, r28
 814:	01 97       	sbiw	r24, 0x01	; 1
 816:	f1 f7       	brne	.-4      	; 0x814 <LCD_Initalize+0x32>
 818:	1f 5f       	subi	r17, 0xFF	; 255
 81a:	13 30       	cpi	r17, 0x03	; 3
 81c:	b1 f7       	brne	.-20     	; 0x80a <LCD_Initalize+0x28>
 81e:	c3 9a       	sbi	0x18, 3	; 24
 820:	82 e0       	ldi	r24, 0x02	; 2
 822:	58 df       	rcall	.-336    	; 0x6d4 <_LCD_OutNibble>
 824:	c3 98       	cbi	0x18, 3	; 24
 826:	80 ed       	ldi	r24, 0xD0	; 208
 828:	97 e0       	ldi	r25, 0x07	; 7
 82a:	01 97       	sbiw	r24, 0x01	; 1
 82c:	f1 f7       	brne	.-4      	; 0x82a <LCD_Initalize+0x48>
 82e:	88 e2       	ldi	r24, 0x28	; 40
 830:	9f df       	rcall	.-194    	; 0x770 <LCD_WriteCommand>
 832:	88 e0       	ldi	r24, 0x08	; 8
 834:	9d df       	rcall	.-198    	; 0x770 <LCD_WriteCommand>
 836:	81 e0       	ldi	r24, 0x01	; 1
 838:	9b df       	rcall	.-202    	; 0x770 <LCD_WriteCommand>
 83a:	86 e0       	ldi	r24, 0x06	; 6
 83c:	99 df       	rcall	.-206    	; 0x770 <LCD_WriteCommand>
 83e:	8c e0       	ldi	r24, 0x0C	; 12
 840:	97 df       	rcall	.-210    	; 0x770 <LCD_WriteCommand>
 842:	df 91       	pop	r29
 844:	cf 91       	pop	r28
 846:	1f 91       	pop	r17
 848:	08 95       	ret

0000084a <itoa>:
 84a:	9c 01       	movw	r18, r24
 84c:	97 fd       	sbrc	r25, 7
 84e:	11 c0       	rjmp	.+34     	; 0x872 <itoa+0x28>
 850:	e8 e5       	ldi	r30, 0x58	; 88
 852:	f1 e0       	ldi	r31, 0x01	; 1
 854:	c9 01       	movw	r24, r18
 856:	6a e0       	ldi	r22, 0x0A	; 10
 858:	70 e0       	ldi	r23, 0x00	; 0
 85a:	32 d2       	rcall	.+1124   	; 0xcc0 <__divmodhi4>
 85c:	80 5d       	subi	r24, 0xD0	; 208
 85e:	82 93       	st	-Z, r24
 860:	c9 01       	movw	r24, r18
 862:	6a e0       	ldi	r22, 0x0A	; 10
 864:	70 e0       	ldi	r23, 0x00	; 0
 866:	2c d2       	rcall	.+1112   	; 0xcc0 <__divmodhi4>
 868:	9b 01       	movw	r18, r22
 86a:	61 15       	cp	r22, r1
 86c:	71 05       	cpc	r23, r1
 86e:	91 f7       	brne	.-28     	; 0x854 <itoa+0xa>
 870:	14 c0       	rjmp	.+40     	; 0x89a <itoa+0x50>
 872:	e8 e5       	ldi	r30, 0x58	; 88
 874:	f1 e0       	ldi	r31, 0x01	; 1
 876:	40 e3       	ldi	r20, 0x30	; 48
 878:	c9 01       	movw	r24, r18
 87a:	6a e0       	ldi	r22, 0x0A	; 10
 87c:	70 e0       	ldi	r23, 0x00	; 0
 87e:	20 d2       	rcall	.+1088   	; 0xcc0 <__divmodhi4>
 880:	94 2f       	mov	r25, r20
 882:	98 1b       	sub	r25, r24
 884:	92 93       	st	-Z, r25
 886:	c9 01       	movw	r24, r18
 888:	6a e0       	ldi	r22, 0x0A	; 10
 88a:	70 e0       	ldi	r23, 0x00	; 0
 88c:	19 d2       	rcall	.+1074   	; 0xcc0 <__divmodhi4>
 88e:	9b 01       	movw	r18, r22
 890:	61 15       	cp	r22, r1
 892:	71 05       	cpc	r23, r1
 894:	89 f7       	brne	.-30     	; 0x878 <itoa+0x2e>
 896:	8d e2       	ldi	r24, 0x2D	; 45
 898:	82 93       	st	-Z, r24
 89a:	cf 01       	movw	r24, r30
 89c:	08 95       	ret

0000089e <LCD_WriteInt>:
 89e:	cf 93       	push	r28
 8a0:	df 93       	push	r29
 8a2:	ec 01       	movw	r28, r24
 8a4:	61 30       	cpi	r22, 0x01	; 1
 8a6:	31 f4       	brne	.+12     	; 0x8b4 <LCD_WriteInt+0x16>
 8a8:	8a 30       	cpi	r24, 0x0A	; 10
 8aa:	91 05       	cpc	r25, r1
 8ac:	1c f4       	brge	.+6      	; 0x8b4 <LCD_WriteInt+0x16>
 8ae:	88 ec       	ldi	r24, 0xC8	; 200
 8b0:	90 e0       	ldi	r25, 0x00	; 0
 8b2:	67 df       	rcall	.-306    	; 0x782 <LCD_WriteText>
 8b4:	ce 01       	movw	r24, r28
 8b6:	c9 df       	rcall	.-110    	; 0x84a <itoa>
 8b8:	64 df       	rcall	.-312    	; 0x782 <LCD_WriteText>
 8ba:	df 91       	pop	r29
 8bc:	cf 91       	pop	r28
 8be:	08 95       	ret

000008c0 <LCD_TempB>:
 8c0:	0f 93       	push	r16
 8c2:	1f 93       	push	r17
 8c4:	cf 93       	push	r28
 8c6:	df 93       	push	r29
 8c8:	8c 01       	movw	r16, r24
 8ca:	c7 e0       	ldi	r28, 0x07	; 7
 8cc:	d0 e0       	ldi	r29, 0x00	; 0
 8ce:	c8 01       	movw	r24, r16
 8d0:	0c 2e       	mov	r0, r28
 8d2:	02 c0       	rjmp	.+4      	; 0x8d8 <LCD_TempB+0x18>
 8d4:	95 95       	asr	r25
 8d6:	87 95       	ror	r24
 8d8:	0a 94       	dec	r0
 8da:	e2 f7       	brpl	.-8      	; 0x8d4 <LCD_TempB+0x14>
 8dc:	80 ff       	sbrs	r24, 0
 8de:	03 c0       	rjmp	.+6      	; 0x8e6 <LCD_TempB+0x26>
 8e0:	8a ec       	ldi	r24, 0xCA	; 202
 8e2:	90 e0       	ldi	r25, 0x00	; 0
 8e4:	02 c0       	rjmp	.+4      	; 0x8ea <LCD_TempB+0x2a>
 8e6:	88 ec       	ldi	r24, 0xC8	; 200
 8e8:	90 e0       	ldi	r25, 0x00	; 0
 8ea:	4b df       	rcall	.-362    	; 0x782 <LCD_WriteText>
 8ec:	21 97       	sbiw	r28, 0x01	; 1
 8ee:	8f ef       	ldi	r24, 0xFF	; 255
 8f0:	cf 3f       	cpi	r28, 0xFF	; 255
 8f2:	d8 07       	cpc	r29, r24
 8f4:	61 f7       	brne	.-40     	; 0x8ce <LCD_TempB+0xe>
 8f6:	df 91       	pop	r29
 8f8:	cf 91       	pop	r28
 8fa:	1f 91       	pop	r17
 8fc:	0f 91       	pop	r16
 8fe:	08 95       	ret

00000900 <TWI_Start>:
 900:	84 ea       	ldi	r24, 0xA4	; 164
 902:	86 bf       	out	0x36, r24	; 54
 904:	06 b6       	in	r0, 0x36	; 54
 906:	07 fe       	sbrs	r0, 7
 908:	fd cf       	rjmp	.-6      	; 0x904 <TWI_Start+0x4>
 90a:	08 95       	ret

0000090c <TWI_Stop>:
 90c:	84 e9       	ldi	r24, 0x94	; 148
 90e:	86 bf       	out	0x36, r24	; 54
 910:	06 b6       	in	r0, 0x36	; 54
 912:	04 fc       	sbrc	r0, 4
 914:	fd cf       	rjmp	.-6      	; 0x910 <TWI_Stop+0x4>
 916:	08 95       	ret

00000918 <TWI_Write>:
 918:	83 b9       	out	0x03, r24	; 3
 91a:	84 e8       	ldi	r24, 0x84	; 132
 91c:	86 bf       	out	0x36, r24	; 54
 91e:	06 b6       	in	r0, 0x36	; 54
 920:	07 fe       	sbrs	r0, 7
 922:	fd cf       	rjmp	.-6      	; 0x91e <TWI_Write+0x6>
 924:	81 b1       	in	r24, 0x01	; 1
 926:	21 b1       	in	r18, 0x01	; 1
 928:	90 e0       	ldi	r25, 0x00	; 0
 92a:	82 31       	cpi	r24, 0x12	; 18
 92c:	09 f4       	brne	.+2      	; 0x930 <TWI_Write+0x18>
 92e:	91 e0       	ldi	r25, 0x01	; 1
 930:	80 e0       	ldi	r24, 0x00	; 0
 932:	2c 31       	cpi	r18, 0x1C	; 28
 934:	09 f4       	brne	.+2      	; 0x938 <TWI_Write+0x20>
 936:	81 e0       	ldi	r24, 0x01	; 1
 938:	98 2b       	or	r25, r24
 93a:	81 e0       	ldi	r24, 0x01	; 1
 93c:	89 27       	eor	r24, r25
 93e:	08 95       	ret

00000940 <TWI_Read>:
 940:	88 23       	and	r24, r24
 942:	11 f4       	brne	.+4      	; 0x948 <TWI_Read+0x8>
 944:	84 e8       	ldi	r24, 0x84	; 132
 946:	01 c0       	rjmp	.+2      	; 0x94a <TWI_Read+0xa>
 948:	84 ec       	ldi	r24, 0xC4	; 196
 94a:	86 bf       	out	0x36, r24	; 54
 94c:	06 b6       	in	r0, 0x36	; 54
 94e:	07 fe       	sbrs	r0, 7
 950:	fd cf       	rjmp	.-6      	; 0x94c <TWI_Read+0xc>
 952:	83 b1       	in	r24, 0x03	; 3
 954:	08 95       	ret

00000956 <TWI_Init>:
 956:	80 e2       	ldi	r24, 0x20	; 32
 958:	80 b9       	out	0x00, r24	; 0
 95a:	08 95       	ret

0000095c <IntToBcd>:
 95c:	28 2f       	mov	r18, r24
 95e:	6a e0       	ldi	r22, 0x0A	; 10
 960:	a3 d1       	rcall	.+838    	; 0xca8 <__udivmodqi4>
 962:	38 2f       	mov	r19, r24
 964:	32 95       	swap	r19
 966:	30 7f       	andi	r19, 0xF0	; 240
 968:	82 2f       	mov	r24, r18
 96a:	9e d1       	rcall	.+828    	; 0xca8 <__udivmodqi4>
 96c:	83 2f       	mov	r24, r19
 96e:	89 2b       	or	r24, r25
 970:	08 95       	ret

00000972 <BcdToInt>:
 972:	98 2f       	mov	r25, r24
 974:	82 95       	swap	r24
 976:	8f 70       	andi	r24, 0x0F	; 15
 978:	2a e0       	ldi	r18, 0x0A	; 10
 97a:	82 9f       	mul	r24, r18
 97c:	80 2d       	mov	r24, r0
 97e:	11 24       	eor	r1, r1
 980:	9f 70       	andi	r25, 0x0F	; 15
 982:	89 0f       	add	r24, r25
 984:	08 95       	ret

00000986 <sprawdz_temp_min>:
 986:	0f 93       	push	r16
 988:	1f 93       	push	r17
 98a:	cf 93       	push	r28
 98c:	df 93       	push	r29
 98e:	fc 01       	movw	r30, r24
 990:	db 01       	movw	r26, r22
 992:	8a 01       	movw	r16, r20
 994:	a9 01       	movw	r20, r18
 996:	22 81       	ldd	r18, Z+2	; 0x02
 998:	33 81       	ldd	r19, Z+3	; 0x03
 99a:	12 96       	adiw	r26, 0x02	; 2
 99c:	8d 91       	ld	r24, X+
 99e:	9c 91       	ld	r25, X
 9a0:	13 97       	sbiw	r26, 0x03	; 3
 9a2:	28 17       	cp	r18, r24
 9a4:	39 07       	cpc	r19, r25
 9a6:	8c f0       	brlt	.+34     	; 0x9ca <sprawdz_temp_min+0x44>
 9a8:	28 17       	cp	r18, r24
 9aa:	39 07       	cpc	r19, r25
 9ac:	91 f5       	brne	.+100    	; 0xa12 <sprawdz_temp_min+0x8c>
 9ae:	80 81       	ld	r24, Z
 9b0:	91 81       	ldd	r25, Z+1	; 0x01
 9b2:	81 30       	cpi	r24, 0x01	; 1
 9b4:	91 05       	cpc	r25, r1
 9b6:	71 f4       	brne	.+28     	; 0x9d4 <sprawdz_temp_min+0x4e>
 9b8:	24 81       	ldd	r18, Z+4	; 0x04
 9ba:	35 81       	ldd	r19, Z+5	; 0x05
 9bc:	14 96       	adiw	r26, 0x04	; 4
 9be:	8d 91       	ld	r24, X+
 9c0:	9c 91       	ld	r25, X
 9c2:	15 97       	sbiw	r26, 0x05	; 5
 9c4:	82 17       	cp	r24, r18
 9c6:	93 07       	cpc	r25, r19
 9c8:	24 f5       	brge	.+72     	; 0xa12 <sprawdz_temp_min+0x8c>
 9ca:	bf 01       	movw	r22, r30
 9cc:	ed 01       	movw	r28, r26
 9ce:	20 e0       	ldi	r18, 0x00	; 0
 9d0:	30 e0       	ldi	r19, 0x00	; 0
 9d2:	0c c0       	rjmp	.+24     	; 0x9ec <sprawdz_temp_min+0x66>
 9d4:	89 2b       	or	r24, r25
 9d6:	e9 f4       	brne	.+58     	; 0xa12 <sprawdz_temp_min+0x8c>
 9d8:	24 81       	ldd	r18, Z+4	; 0x04
 9da:	35 81       	ldd	r19, Z+5	; 0x05
 9dc:	14 96       	adiw	r26, 0x04	; 4
 9de:	8d 91       	ld	r24, X+
 9e0:	9c 91       	ld	r25, X
 9e2:	15 97       	sbiw	r26, 0x05	; 5
 9e4:	28 17       	cp	r18, r24
 9e6:	39 07       	cpc	r19, r25
 9e8:	84 f3       	brlt	.-32     	; 0x9ca <sprawdz_temp_min+0x44>
 9ea:	13 c0       	rjmp	.+38     	; 0xa12 <sprawdz_temp_min+0x8c>
 9ec:	fb 01       	movw	r30, r22
 9ee:	81 91       	ld	r24, Z+
 9f0:	91 91       	ld	r25, Z+
 9f2:	bf 01       	movw	r22, r30
 9f4:	89 93       	st	Y+, r24
 9f6:	99 93       	st	Y+, r25
 9f8:	da 01       	movw	r26, r20
 9fa:	a2 0f       	add	r26, r18
 9fc:	b3 1f       	adc	r27, r19
 9fe:	f8 01       	movw	r30, r16
 a00:	e2 0f       	add	r30, r18
 a02:	f3 1f       	adc	r31, r19
 a04:	80 81       	ld	r24, Z
 a06:	8c 93       	st	X, r24
 a08:	2f 5f       	subi	r18, 0xFF	; 255
 a0a:	3f 4f       	sbci	r19, 0xFF	; 255
 a0c:	23 30       	cpi	r18, 0x03	; 3
 a0e:	31 05       	cpc	r19, r1
 a10:	69 f7       	brne	.-38     	; 0x9ec <sprawdz_temp_min+0x66>
 a12:	df 91       	pop	r29
 a14:	cf 91       	pop	r28
 a16:	1f 91       	pop	r17
 a18:	0f 91       	pop	r16
 a1a:	08 95       	ret

00000a1c <wysw_temp>:
 a1c:	1f 93       	push	r17
 a1e:	cf 93       	push	r28
 a20:	df 93       	push	r29
 a22:	ec 01       	movw	r28, r24
 a24:	16 2f       	mov	r17, r22
 a26:	8a 81       	ldd	r24, Y+2	; 0x02
 a28:	9b 81       	ldd	r25, Y+3	; 0x03
 a2a:	97 fd       	sbrc	r25, 7
 a2c:	0a c0       	rjmp	.+20     	; 0xa42 <wysw_temp+0x26>
 a2e:	88 81       	ld	r24, Y
 a30:	99 81       	ldd	r25, Y+1	; 0x01
 a32:	01 97       	sbiw	r24, 0x01	; 1
 a34:	19 f4       	brne	.+6      	; 0xa3c <wysw_temp+0x20>
 a36:	8c ec       	ldi	r24, 0xCC	; 204
 a38:	90 e0       	ldi	r25, 0x00	; 0
 a3a:	02 c0       	rjmp	.+4      	; 0xa40 <wysw_temp+0x24>
 a3c:	8e ec       	ldi	r24, 0xCE	; 206
 a3e:	90 e0       	ldi	r25, 0x00	; 0
 a40:	a0 de       	rcall	.-704    	; 0x782 <LCD_WriteText>
 a42:	8a 81       	ldd	r24, Y+2	; 0x02
 a44:	9b 81       	ldd	r25, Y+3	; 0x03
 a46:	60 e0       	ldi	r22, 0x00	; 0
 a48:	2a df       	rcall	.-428    	; 0x89e <LCD_WriteInt>
 a4a:	80 ed       	ldi	r24, 0xD0	; 208
 a4c:	90 e0       	ldi	r25, 0x00	; 0
 a4e:	99 de       	rcall	.-718    	; 0x782 <LCD_WriteText>
 a50:	8c 81       	ldd	r24, Y+4	; 0x04
 a52:	9d 81       	ldd	r25, Y+5	; 0x05
 a54:	60 e0       	ldi	r22, 0x00	; 0
 a56:	23 df       	rcall	.-442    	; 0x89e <LCD_WriteInt>
 a58:	11 30       	cpi	r17, 0x01	; 1
 a5a:	29 f4       	brne	.+10     	; 0xa66 <wysw_temp+0x4a>
 a5c:	8f ed       	ldi	r24, 0xDF	; 223
 a5e:	8b de       	rcall	.-746    	; 0x776 <LCD_WriteData>
 a60:	82 ed       	ldi	r24, 0xD2	; 210
 a62:	90 e0       	ldi	r25, 0x00	; 0
 a64:	02 c0       	rjmp	.+4      	; 0xa6a <wysw_temp+0x4e>
 a66:	84 ed       	ldi	r24, 0xD4	; 212
 a68:	90 e0       	ldi	r25, 0x00	; 0
 a6a:	8b de       	rcall	.-746    	; 0x782 <LCD_WriteText>
 a6c:	df 91       	pop	r29
 a6e:	cf 91       	pop	r28
 a70:	1f 91       	pop	r17
 a72:	08 95       	ret

00000a74 <odczyt_temp>:
 a74:	9f 92       	push	r9
 a76:	af 92       	push	r10
 a78:	bf 92       	push	r11
 a7a:	cf 92       	push	r12
 a7c:	df 92       	push	r13
 a7e:	ef 92       	push	r14
 a80:	ff 92       	push	r15
 a82:	0f 93       	push	r16
 a84:	1f 93       	push	r17
 a86:	cf 93       	push	r28
 a88:	df 93       	push	r29
 a8a:	7c 01       	movw	r14, r24
 a8c:	16 2f       	mov	r17, r22
 a8e:	63 df       	rcall	.-314    	; 0x956 <TWI_Init>
 a90:	11 0f       	add	r17, r17
 a92:	70 e9       	ldi	r23, 0x90	; 144
 a94:	b7 2e       	mov	r11, r23
 a96:	b1 2a       	or	r11, r17
 a98:	61 e9       	ldi	r22, 0x91	; 145
 a9a:	a6 2e       	mov	r10, r22
 a9c:	a1 2a       	or	r10, r17
 a9e:	87 01       	movw	r16, r14
 aa0:	0e 5f       	subi	r16, 0xFE	; 254
 aa2:	1f 4f       	sbci	r17, 0xFF	; 255
 aa4:	54 e0       	ldi	r21, 0x04	; 4
 aa6:	c5 2e       	mov	r12, r21
 aa8:	d1 2c       	mov	r13, r1
 aaa:	ce 0c       	add	r12, r14
 aac:	df 1c       	adc	r13, r15
 aae:	4a e0       	ldi	r20, 0x0A	; 10
 ab0:	94 2e       	mov	r9, r20
 ab2:	26 df       	rcall	.-436    	; 0x900 <TWI_Start>
 ab4:	8b 2d       	mov	r24, r11
 ab6:	30 df       	rcall	.-416    	; 0x918 <TWI_Write>
 ab8:	81 e5       	ldi	r24, 0x51	; 81
 aba:	2e df       	rcall	.-420    	; 0x918 <TWI_Write>
 abc:	27 df       	rcall	.-434    	; 0x90c <TWI_Stop>
 abe:	20 df       	rcall	.-448    	; 0x900 <TWI_Start>
 ac0:	8b 2d       	mov	r24, r11
 ac2:	2a df       	rcall	.-428    	; 0x918 <TWI_Write>
 ac4:	8a ea       	ldi	r24, 0xAA	; 170
 ac6:	28 df       	rcall	.-432    	; 0x918 <TWI_Write>
 ac8:	1b df       	rcall	.-458    	; 0x900 <TWI_Start>
 aca:	8a 2d       	mov	r24, r10
 acc:	25 df       	rcall	.-438    	; 0x918 <TWI_Write>
 ace:	81 e0       	ldi	r24, 0x01	; 1
 ad0:	37 df       	rcall	.-402    	; 0x940 <TWI_Read>
 ad2:	d8 2f       	mov	r29, r24
 ad4:	c0 e0       	ldi	r28, 0x00	; 0
 ad6:	8d 2f       	mov	r24, r29
 ad8:	99 27       	eor	r25, r25
 ada:	87 fd       	sbrc	r24, 7
 adc:	9a 95       	dec	r25
 ade:	f8 01       	movw	r30, r16
 ae0:	91 83       	std	Z+1, r25	; 0x01
 ae2:	80 83       	st	Z, r24
 ae4:	80 e0       	ldi	r24, 0x00	; 0
 ae6:	2c df       	rcall	.-424    	; 0x940 <TWI_Read>
 ae8:	89 9d       	mul	r24, r9
 aea:	c0 01       	movw	r24, r0
 aec:	11 24       	eor	r1, r1
 aee:	89 2f       	mov	r24, r25
 af0:	99 0f       	add	r25, r25
 af2:	99 0b       	sbc	r25, r25
 af4:	f6 01       	movw	r30, r12
 af6:	91 83       	std	Z+1, r25	; 0x01
 af8:	80 83       	st	Z, r24
 afa:	08 df       	rcall	.-496    	; 0x90c <TWI_Stop>
 afc:	f8 01       	movw	r30, r16
 afe:	80 81       	ld	r24, Z
 b00:	91 81       	ldd	r25, Z+1	; 0x01
 b02:	ff ef       	ldi	r31, 0xFF	; 255
 b04:	84 3c       	cpi	r24, 0xC4	; 196
 b06:	9f 07       	cpc	r25, r31
 b08:	a1 f2       	breq	.-88     	; 0xab2 <odczyt_temp+0x3e>
 b0a:	97 ff       	sbrs	r25, 7
 b0c:	17 c0       	rjmp	.+46     	; 0xb3c <odczyt_temp+0xc8>
 b0e:	81 e0       	ldi	r24, 0x01	; 1
 b10:	90 e0       	ldi	r25, 0x00	; 0
 b12:	f7 01       	movw	r30, r14
 b14:	91 83       	std	Z+1, r25	; 0x01
 b16:	80 83       	st	Z, r24
 b18:	84 81       	ldd	r24, Z+4	; 0x04
 b1a:	95 81       	ldd	r25, Z+5	; 0x05
 b1c:	89 2b       	or	r24, r25
 b1e:	89 f0       	breq	.+34     	; 0xb42 <odczyt_temp+0xce>
 b20:	82 81       	ldd	r24, Z+2	; 0x02
 b22:	93 81       	ldd	r25, Z+3	; 0x03
 b24:	01 96       	adiw	r24, 0x01	; 1
 b26:	93 83       	std	Z+3, r25	; 0x03
 b28:	82 83       	std	Z+2, r24	; 0x02
 b2a:	8a e0       	ldi	r24, 0x0A	; 10
 b2c:	90 e0       	ldi	r25, 0x00	; 0
 b2e:	24 81       	ldd	r18, Z+4	; 0x04
 b30:	35 81       	ldd	r19, Z+5	; 0x05
 b32:	82 1b       	sub	r24, r18
 b34:	93 0b       	sbc	r25, r19
 b36:	95 83       	std	Z+5, r25	; 0x05
 b38:	84 83       	std	Z+4, r24	; 0x04
 b3a:	03 c0       	rjmp	.+6      	; 0xb42 <odczyt_temp+0xce>
 b3c:	f7 01       	movw	r30, r14
 b3e:	11 82       	std	Z+1, r1	; 0x01
 b40:	10 82       	st	Z, r1
 b42:	df 91       	pop	r29
 b44:	cf 91       	pop	r28
 b46:	1f 91       	pop	r17
 b48:	0f 91       	pop	r16
 b4a:	ff 90       	pop	r15
 b4c:	ef 90       	pop	r14
 b4e:	df 90       	pop	r13
 b50:	cf 90       	pop	r12
 b52:	bf 90       	pop	r11
 b54:	af 90       	pop	r10
 b56:	9f 90       	pop	r9
 b58:	08 95       	ret

00000b5a <wysw_dzien_tyg>:
 b5a:	83 30       	cpi	r24, 0x03	; 3
 b5c:	b9 f0       	breq	.+46     	; 0xb8c <wysw_dzien_tyg+0x32>
 b5e:	84 30       	cpi	r24, 0x04	; 4
 b60:	28 f4       	brcc	.+10     	; 0xb6c <wysw_dzien_tyg+0x12>
 b62:	81 30       	cpi	r24, 0x01	; 1
 b64:	51 f0       	breq	.+20     	; 0xb7a <wysw_dzien_tyg+0x20>
 b66:	82 30       	cpi	r24, 0x02	; 2
 b68:	70 f4       	brcc	.+28     	; 0xb86 <wysw_dzien_tyg+0x2c>
 b6a:	0a c0       	rjmp	.+20     	; 0xb80 <wysw_dzien_tyg+0x26>
 b6c:	85 30       	cpi	r24, 0x05	; 5
 b6e:	a1 f0       	breq	.+40     	; 0xb98 <wysw_dzien_tyg+0x3e>
 b70:	85 30       	cpi	r24, 0x05	; 5
 b72:	78 f0       	brcs	.+30     	; 0xb92 <wysw_dzien_tyg+0x38>
 b74:	86 30       	cpi	r24, 0x06	; 6
 b76:	b1 f4       	brne	.+44     	; 0xba4 <wysw_dzien_tyg+0x4a>
 b78:	12 c0       	rjmp	.+36     	; 0xb9e <wysw_dzien_tyg+0x44>
 b7a:	27 ed       	ldi	r18, 0xD7	; 215
 b7c:	30 e0       	ldi	r19, 0x00	; 0
 b7e:	14 c0       	rjmp	.+40     	; 0xba8 <wysw_dzien_tyg+0x4e>
 b80:	24 ee       	ldi	r18, 0xE4	; 228
 b82:	30 e0       	ldi	r19, 0x00	; 0
 b84:	11 c0       	rjmp	.+34     	; 0xba8 <wysw_dzien_tyg+0x4e>
 b86:	21 ef       	ldi	r18, 0xF1	; 241
 b88:	30 e0       	ldi	r19, 0x00	; 0
 b8a:	0e c0       	rjmp	.+28     	; 0xba8 <wysw_dzien_tyg+0x4e>
 b8c:	2e ef       	ldi	r18, 0xFE	; 254
 b8e:	30 e0       	ldi	r19, 0x00	; 0
 b90:	0b c0       	rjmp	.+22     	; 0xba8 <wysw_dzien_tyg+0x4e>
 b92:	2b e0       	ldi	r18, 0x0B	; 11
 b94:	31 e0       	ldi	r19, 0x01	; 1
 b96:	08 c0       	rjmp	.+16     	; 0xba8 <wysw_dzien_tyg+0x4e>
 b98:	28 e1       	ldi	r18, 0x18	; 24
 b9a:	31 e0       	ldi	r19, 0x01	; 1
 b9c:	05 c0       	rjmp	.+10     	; 0xba8 <wysw_dzien_tyg+0x4e>
 b9e:	25 e2       	ldi	r18, 0x25	; 37
 ba0:	31 e0       	ldi	r19, 0x01	; 1
 ba2:	02 c0       	rjmp	.+4      	; 0xba8 <wysw_dzien_tyg+0x4e>
 ba4:	22 e3       	ldi	r18, 0x32	; 50
 ba6:	31 e0       	ldi	r19, 0x01	; 1
 ba8:	c9 01       	movw	r24, r18
 baa:	08 95       	ret

00000bac <wysw_czas>:
 bac:	ef 92       	push	r14
 bae:	ff 92       	push	r15
 bb0:	0f 93       	push	r16
 bb2:	1f 93       	push	r17
 bb4:	8c 01       	movw	r16, r24
 bb6:	fc 01       	movw	r30, r24
 bb8:	80 81       	ld	r24, Z
 bba:	90 e0       	ldi	r25, 0x00	; 0
 bbc:	61 e0       	ldi	r22, 0x01	; 1
 bbe:	6f de       	rcall	.-802    	; 0x89e <LCD_WriteInt>
 bc0:	8f e3       	ldi	r24, 0x3F	; 63
 bc2:	e8 2e       	mov	r14, r24
 bc4:	81 e0       	ldi	r24, 0x01	; 1
 bc6:	f8 2e       	mov	r15, r24
 bc8:	c7 01       	movw	r24, r14
 bca:	db dd       	rcall	.-1098   	; 0x782 <LCD_WriteText>
 bcc:	f8 01       	movw	r30, r16
 bce:	81 81       	ldd	r24, Z+1	; 0x01
 bd0:	90 e0       	ldi	r25, 0x00	; 0
 bd2:	61 e0       	ldi	r22, 0x01	; 1
 bd4:	64 de       	rcall	.-824    	; 0x89e <LCD_WriteInt>
 bd6:	c7 01       	movw	r24, r14
 bd8:	d4 dd       	rcall	.-1112   	; 0x782 <LCD_WriteText>
 bda:	f8 01       	movw	r30, r16
 bdc:	82 81       	ldd	r24, Z+2	; 0x02
 bde:	90 e0       	ldi	r25, 0x00	; 0
 be0:	61 e0       	ldi	r22, 0x01	; 1
 be2:	5d de       	rcall	.-838    	; 0x89e <LCD_WriteInt>
 be4:	1f 91       	pop	r17
 be6:	0f 91       	pop	r16
 be8:	ff 90       	pop	r15
 bea:	ef 90       	pop	r14
 bec:	08 95       	ret

00000bee <odczyt_daty>:
 bee:	0f 93       	push	r16
 bf0:	1f 93       	push	r17
 bf2:	8c 01       	movw	r16, r24
 bf4:	b0 de       	rcall	.-672    	; 0x956 <TWI_Init>
 bf6:	84 de       	rcall	.-760    	; 0x900 <TWI_Start>
 bf8:	80 ea       	ldi	r24, 0xA0	; 160
 bfa:	8e de       	rcall	.-740    	; 0x918 <TWI_Write>
 bfc:	85 e0       	ldi	r24, 0x05	; 5
 bfe:	8c de       	rcall	.-744    	; 0x918 <TWI_Write>
 c00:	85 de       	rcall	.-758    	; 0x90c <TWI_Stop>
 c02:	7e de       	rcall	.-772    	; 0x900 <TWI_Start>
 c04:	81 ea       	ldi	r24, 0xA1	; 161
 c06:	88 de       	rcall	.-752    	; 0x918 <TWI_Write>
 c08:	81 e0       	ldi	r24, 0x01	; 1
 c0a:	9a de       	rcall	.-716    	; 0x940 <TWI_Read>
 c0c:	98 2f       	mov	r25, r24
 c0e:	92 95       	swap	r25
 c10:	96 95       	lsr	r25
 c12:	96 95       	lsr	r25
 c14:	93 70       	andi	r25, 0x03	; 3
 c16:	f8 01       	movw	r30, r16
 c18:	90 83       	st	Z, r25
 c1a:	8f 73       	andi	r24, 0x3F	; 63
 c1c:	83 83       	std	Z+3, r24	; 0x03
 c1e:	80 e0       	ldi	r24, 0x00	; 0
 c20:	8f de       	rcall	.-738    	; 0x940 <TWI_Read>
 c22:	98 2f       	mov	r25, r24
 c24:	9f 71       	andi	r25, 0x1F	; 31
 c26:	f8 01       	movw	r30, r16
 c28:	92 83       	std	Z+2, r25	; 0x02
 c2a:	82 95       	swap	r24
 c2c:	86 95       	lsr	r24
 c2e:	87 70       	andi	r24, 0x07	; 7
 c30:	84 83       	std	Z+4, r24	; 0x04
 c32:	6c de       	rcall	.-808    	; 0x90c <TWI_Stop>
 c34:	65 de       	rcall	.-822    	; 0x900 <TWI_Start>
 c36:	80 ea       	ldi	r24, 0xA0	; 160
 c38:	6f de       	rcall	.-802    	; 0x918 <TWI_Write>
 c3a:	80 e1       	ldi	r24, 0x10	; 16
 c3c:	6d de       	rcall	.-806    	; 0x918 <TWI_Write>
 c3e:	66 de       	rcall	.-820    	; 0x90c <TWI_Stop>
 c40:	5f de       	rcall	.-834    	; 0x900 <TWI_Start>
 c42:	81 ea       	ldi	r24, 0xA1	; 161
 c44:	69 de       	rcall	.-814    	; 0x918 <TWI_Write>
 c46:	80 e0       	ldi	r24, 0x00	; 0
 c48:	7b de       	rcall	.-778    	; 0x940 <TWI_Read>
 c4a:	f8 01       	movw	r30, r16
 c4c:	81 83       	std	Z+1, r24	; 0x01
 c4e:	5e de       	rcall	.-836    	; 0x90c <TWI_Stop>
 c50:	1f 91       	pop	r17
 c52:	0f 91       	pop	r16
 c54:	08 95       	ret

00000c56 <odczyt_czasu>:
 c56:	0f 93       	push	r16
 c58:	1f 93       	push	r17
 c5a:	8c 01       	movw	r16, r24
 c5c:	7c de       	rcall	.-776    	; 0x956 <TWI_Init>
 c5e:	50 de       	rcall	.-864    	; 0x900 <TWI_Start>
 c60:	80 ea       	ldi	r24, 0xA0	; 160
 c62:	5a de       	rcall	.-844    	; 0x918 <TWI_Write>
 c64:	82 e0       	ldi	r24, 0x02	; 2
 c66:	58 de       	rcall	.-848    	; 0x918 <TWI_Write>
 c68:	51 de       	rcall	.-862    	; 0x90c <TWI_Stop>
 c6a:	4a de       	rcall	.-876    	; 0x900 <TWI_Start>
 c6c:	81 ea       	ldi	r24, 0xA1	; 161
 c6e:	54 de       	rcall	.-856    	; 0x918 <TWI_Write>
 c70:	81 e0       	ldi	r24, 0x01	; 1
 c72:	66 de       	rcall	.-820    	; 0x940 <TWI_Read>
 c74:	7e de       	rcall	.-772    	; 0x972 <BcdToInt>
 c76:	f8 01       	movw	r30, r16
 c78:	82 83       	std	Z+2, r24	; 0x02
 c7a:	81 e0       	ldi	r24, 0x01	; 1
 c7c:	61 de       	rcall	.-830    	; 0x940 <TWI_Read>
 c7e:	79 de       	rcall	.-782    	; 0x972 <BcdToInt>
 c80:	f8 01       	movw	r30, r16
 c82:	81 83       	std	Z+1, r24	; 0x01
 c84:	80 e0       	ldi	r24, 0x00	; 0
 c86:	5c de       	rcall	.-840    	; 0x940 <TWI_Read>
 c88:	74 de       	rcall	.-792    	; 0x972 <BcdToInt>
 c8a:	f8 01       	movw	r30, r16
 c8c:	80 83       	st	Z, r24
 c8e:	3e de       	rcall	.-900    	; 0x90c <TWI_Stop>
 c90:	1f 91       	pop	r17
 c92:	0f 91       	pop	r16
 c94:	08 95       	ret

00000c96 <Timer1_Init>:
 c96:	81 ea       	ldi	r24, 0xA1	; 161
 c98:	8f bd       	out	0x2f, r24	; 47
 c9a:	8c e0       	ldi	r24, 0x0C	; 12
 c9c:	8e bd       	out	0x2e, r24	; 46
 c9e:	1b bc       	out	0x2b, r1	; 43
 ca0:	1a bc       	out	0x2a, r1	; 42
 ca2:	19 bc       	out	0x29, r1	; 41
 ca4:	18 bc       	out	0x28, r1	; 40
 ca6:	08 95       	ret

00000ca8 <__udivmodqi4>:
 ca8:	99 1b       	sub	r25, r25
 caa:	79 e0       	ldi	r23, 0x09	; 9
 cac:	04 c0       	rjmp	.+8      	; 0xcb6 <__udivmodqi4_ep>

00000cae <__udivmodqi4_loop>:
 cae:	99 1f       	adc	r25, r25
 cb0:	96 17       	cp	r25, r22
 cb2:	08 f0       	brcs	.+2      	; 0xcb6 <__udivmodqi4_ep>
 cb4:	96 1b       	sub	r25, r22

00000cb6 <__udivmodqi4_ep>:
 cb6:	88 1f       	adc	r24, r24
 cb8:	7a 95       	dec	r23
 cba:	c9 f7       	brne	.-14     	; 0xcae <__udivmodqi4_loop>
 cbc:	80 95       	com	r24
 cbe:	08 95       	ret

00000cc0 <__divmodhi4>:
 cc0:	97 fb       	bst	r25, 7
 cc2:	09 2e       	mov	r0, r25
 cc4:	07 26       	eor	r0, r23
 cc6:	0a d0       	rcall	.+20     	; 0xcdc <__divmodhi4_neg1>
 cc8:	77 fd       	sbrc	r23, 7
 cca:	04 d0       	rcall	.+8      	; 0xcd4 <__divmodhi4_neg2>
 ccc:	0c d0       	rcall	.+24     	; 0xce6 <__udivmodhi4>
 cce:	06 d0       	rcall	.+12     	; 0xcdc <__divmodhi4_neg1>
 cd0:	00 20       	and	r0, r0
 cd2:	1a f4       	brpl	.+6      	; 0xcda <__divmodhi4_exit>

00000cd4 <__divmodhi4_neg2>:
 cd4:	70 95       	com	r23
 cd6:	61 95       	neg	r22
 cd8:	7f 4f       	sbci	r23, 0xFF	; 255

00000cda <__divmodhi4_exit>:
 cda:	08 95       	ret

00000cdc <__divmodhi4_neg1>:
 cdc:	f6 f7       	brtc	.-4      	; 0xcda <__divmodhi4_exit>
 cde:	90 95       	com	r25
 ce0:	81 95       	neg	r24
 ce2:	9f 4f       	sbci	r25, 0xFF	; 255
 ce4:	08 95       	ret

00000ce6 <__udivmodhi4>:
 ce6:	aa 1b       	sub	r26, r26
 ce8:	bb 1b       	sub	r27, r27
 cea:	51 e1       	ldi	r21, 0x11	; 17
 cec:	07 c0       	rjmp	.+14     	; 0xcfc <__udivmodhi4_ep>

00000cee <__udivmodhi4_loop>:
 cee:	aa 1f       	adc	r26, r26
 cf0:	bb 1f       	adc	r27, r27
 cf2:	a6 17       	cp	r26, r22
 cf4:	b7 07       	cpc	r27, r23
 cf6:	10 f0       	brcs	.+4      	; 0xcfc <__udivmodhi4_ep>
 cf8:	a6 1b       	sub	r26, r22
 cfa:	b7 0b       	sbc	r27, r23

00000cfc <__udivmodhi4_ep>:
 cfc:	88 1f       	adc	r24, r24
 cfe:	99 1f       	adc	r25, r25
 d00:	5a 95       	dec	r21
 d02:	a9 f7       	brne	.-22     	; 0xcee <__udivmodhi4_loop>
 d04:	80 95       	com	r24
 d06:	90 95       	com	r25
 d08:	bc 01       	movw	r22, r24
 d0a:	cd 01       	movw	r24, r26
 d0c:	08 95       	ret

00000d0e <_exit>:
 d0e:	f8 94       	cli

00000d10 <__stop_program>:
 d10:	ff cf       	rjmp	.-2      	; 0xd10 <__stop_program>
